(lp1
V\u4e0a\u6d77\u7ad9
p2
aV\u5317\u4eac\u5357
p3
aV\u5929\u6d25\u5357
p4
aV\u5929\u6d25\u7ad9
p5
aV\u5317\u4eac\u7ad9
p6
aV\u5e7f\u5dde\u5357
p7
aV\u5317\u4eac\u897f
p8
aV\u6df1\u5733\u5317
p9
aV\u5408\u80a5\u7ad9
p10
aV\u5357\u4eac\u5357
p11
aV\u5357\u4eac\u7ad9
p12
aV\u6210\u90fd\u7ad9
p13
aV\u897f\u5b89\u7ad9
p14
aV\u54c8\u5c14\u6ee8\u7ad9
p15
aV\u54c8\u5c14\u6ee8\u897f
p16
aV\u6c88\u9633\u5317
p17
aV\u6c88\u9633\u7ad9
p18
aV\u5927\u8fde\u7ad9
p19
aV\u676d\u5dde\u7ad9
p20
aV\u957f\u6c99\u7ad9
p21
aV\u957f\u6c99\u5357
p22
aV\u6b66\u660c\u7ad9
p23
aV\u6c49\u53e3\u7ad9
p24
aV\u5170\u5dde\u7ad9
p25
aV\u9752\u5c9b\u5317
p26
aV\u547c\u548c\u6d69\u7279\u7ad9
p27
aV\u547c\u548c\u6d69\u7279\u4e1c
p28
aV\u5317\u4eac\u5317
p29
aV\u957f\u6625\u897f
p30
aV\u957f\u6625\u7ad9
p31
aV\u961c\u9633\u7ad9
p32
aV\u868c\u57e0\u5357
p33
aV\u868c\u57e0\u7ad9
p34
aV\u82cf\u5dde\u7ad9
p35
aV\u77f3\u5bb6\u5e84\u7ad9
p36
aV\u6d4e\u5357\u897f
p37
aV\u6d4e\u5357
p38
aV\u5357\u660c\u7ad9
p39
aV\u5357\u660c\u897f
p40
aV\u90d1\u5dde\u4e1c
p41
aV\u90d1\u5dde\u7ad9
p42
aV\u4e5d\u6c5f\u7ad9
p43
aV\u516d\u5b89\u7ad9
p44
aV\u6842\u6797\u5317
p45
aV\u4fdd\u5b9a\u4e1c
p46
aV\u4fdd\u5b9a\u7ad9
p47
aV\u5e38\u5fb7\u7ad9
p48
aV\u5927\u5e86\u897f
p49
aV\u5927\u5e86\u7ad9
p50
aV\u961c\u65b0\u7ad9
p51
aV\u5317\u4eac\u4e1c
p52
aV\u8d35\u9633\u5317
p53
aV\u8d35\u9633\u7ad9
p54
aV\u6d77\u53e3\u7ad9
p55
aV\u6dee\u5357
p56
aV\u5409\u6797\u7ad9
p57
aV\u5546\u4e18\u7ad9
p58
aV\u5546\u4e18\u5357
p59
aV\u5bbf\u5dde\u4e1c
p60
aV\u5bbf\u5dde\u7ad9
p61
aV\u829c\u6e56\u7ad9
p62
aV\u65e0\u9521\u7ad9
p63
aV\u5f90\u5dde\u7ad9
p64
aV\u5f90\u5dde\u4e1c
p65
aV\u4fe1\u9633\u4e1c
p66
aV\u5929\u6d25\u897f
p67
aV\u4e0a\u6d77\u5357
p68
aV\u4e0a\u6d77\u8679\u6865\u7ad9
p69
aV\u5408\u80a5\u5357
p70
aV\u53a6\u95e8\u5317
p71
aV\u4e0a\u6d77\u897f
p72
aV\u897f\u5b89\u5317
p73
aV\u676d\u5dde\u4e1c
p74
aV\u82cf\u5dde\u5317
p75
aV\u82cf\u5dde\u56ed\u533a\u7ad9
p76
aV\u5b81\u6ce2\u7ad9
p77
aV\u6e29\u5dde\u5357
p78
aV\u77f3\u5bb6\u5e84\u5317
p79
aV\u9ec4\u5c71\u7ad9
p80
aV\u6c60\u5dde\u7ad9
p81
aV\u94dc\u9675\u7ad9
p82
aV\u65e0\u9521\u4e1c
p83
aV\u65e0\u9521\u65b0\u533a\u7ad9
p84
aV\u4fe1\u9633\u7ad9
p85
aV\u6df1\u5733\u7ad9
p86
aV\u6d4e\u5357\u4e1c
p87
aV\u5e7f\u5dde\u7ad9
p88
aV\u5e7f\u5dde\u4e1c
p89
aV\u6df1\u5733\u576a\u5c71\u7ad9
p90
aV\u6df1\u5733\u897f
p91
aV\u5e7f\u5dde\u5317
p92
aV\u6b66\u6c49\u7ad9
p93
aV\u5357\u5b81\u7ad9
p94
aV\u4e1c\u839e\u4e1c
p95
aV\u6885\u5dde\u7ad9
p96
aV\u6df1\u5733\u4e1c
p97
aV\u5b89\u5e86\u897f
p98
aV\u6cc9\u5dde\u7ad9
p99
aV\u82cf\u5dde\u65b0\u533a\u7ad9
p100
aV\u6e29\u5dde\u7ad9
p101
aV\u5b89\u5e86\u7ad9
p102
aV\u9ec4\u5c71\u5317
p103
aV\u6dee\u5357\u4e1c
p104
aV\u94dc\u9675\u5317
p105
aV\u6606\u660e\u7ad9
p106
aV\u4e3d\u6c5f\u7ad9
p107
aV\u5927\u7406\u7ad9
p108
aV\u53a6\u95e8\u7ad9
p109
aV\u798f\u5dde\u7ad9
p110
aV\u8fde\u6c5f\u7ad9
p111
aV\u6c38\u6cf0\u7ad9
p112
aV\u798f\u5dde\u5357
p113
aV\u6b59\u53bf\u7ad9
p114
aV\u4e09\u4e9a\u7ad9
p115
aV\u6d77\u53e3\u4e1c
p116
aV\u62c9\u8428\u7ad9
p117
aV\u897f\u5b81\u7ad9
p118
aV\u91cd\u5e86\u5317
p119
aV\u6210\u90fd\u4e1c
p120
aV\u6210\u90fd\u5357
p121
aV\u897f\u5b89\u5357
p122
aV\u7ef5\u9633\u7ad9
p123
aV\u91cd\u5e86\u7ad9
p124
aV\u5317\u789a\u7ad9
p125
aV\u5927\u8fde\u5317
p126
aV\u54c8\u5c14\u6ee8\u5317
p127
aV\u5927\u5e86\u4e1c
p128
aV\u4e1c\u839e\u7ad9
p129
aV\u5e90\u5c71\u7ad9
p130
aV\u5170\u5dde\u897f
p131
aV\u9752\u5c9b\u7ad9
p132
aV\u5f20\u5bb6\u754c\u7ad9
p133
aV\u4e4c\u9c81\u6728\u9f50\u7ad9
p134
aV\u4e4c\u9c81\u6728\u9f50\u5357
p135
aV\u5f00\u5c01\u7ad9
p136
aV\u6768\u67f3\u9752\u7ad9
p137
aV\u519b\u7cae\u57ce\u5317
p138
aV\u5858\u6cbd\u7ad9
p139
aV\u5f00\u5c01\u5317
p140
aV\u5357\u5b81\u4e1c
p141
aV\u6842\u6797\u7ad9
p142
aV\u4f5b\u5c71\u7ad9
p143
aV\u864e\u95e8\u7ad9
p144
aV\u65e5\u7167\u7ad9
p145
aV\u6850\u57ce\u7ad9
p146
aV\u4e0a\u6d77\u8679\u6865\u7ad9
p147
aV\u5317\u4eac\u5357
p148
aV\u4e0a\u6d77\u7ad9
p149
aV\u5317\u4eac\u7ad9
p150
aV\u5929\u6d25\u897f
p151
aV\u5317\u4eac\u897f
p152
aV\u5929\u6d25\u7ad9
p153
aV\u5929\u6d25\u5357
p154
aV\u6df1\u5733\u5317
p155
aV\u6df1\u5733\u7ad9
p156
aV\u5408\u80a5\u5357
p157
aV\u5408\u80a5\u7ad9
p158
aV\u53a6\u95e8\u5317
p159
aV\u53a6\u95e8\u7ad9
p160
aV\u5357\u4eac\u7ad9
p161
aV\u5357\u4eac\u5357
p162
aV\u6210\u90fd\u4e1c
p163
aV\u6210\u90fd\u7ad9
p164
aV\u897f\u5b89\u7ad9
p165
aV\u897f\u5b89\u5317
p166
aV\u54c8\u5c14\u6ee8\u7ad9
p167
aV\u54c8\u5c14\u6ee8\u897f
p168
aV\u54c8\u5c14\u6ee8\u5317
p169
aV\u6c88\u9633\u5317
p170
aV\u6c88\u9633\u7ad9
p171
aV\u6c88\u9633\u5357
p172
aV\u5927\u8fde\u7ad9
p173
aV\u5927\u8fde\u5317
p174
aV\u676d\u5dde\u4e1c
p175
aV\u676d\u5dde\u7ad9
p176
aV\u957f\u6c99\u7ad9
p177
aV\u957f\u6c99\u5357
p178
aV\u6b66\u660c\u7ad9
p179
aV\u6c49\u53e3\u7ad9
p180
aV\u6b66\u6c49\u7ad9
p181
aV\u5170\u5dde\u7ad9
p182
aV\u9752\u5c9b\u5317
p183
aV\u9752\u5c9b\u7ad9
p184
aV\u5f20\u5bb6\u754c\u7ad9
p185
aV\u547c\u548c\u6d69\u7279\u4e1c
p186
aV\u547c\u548c\u6d69\u7279\u7ad9
p187
aV\u5317\u4eac\u5317
p188
aV\u957f\u6625\u7ad9
p189
aV\u957f\u6625\u897f
p190
aV\u961c\u9633\u7ad9
p191
aV\u868c\u57e0\u7ad9
p192
aV\u868c\u57e0\u5357
p193
aV\u82cf\u5dde\u5317
p194
aV\u82cf\u5dde\u7ad9
p195
aV\u5b81\u6ce2\u7ad9
p196
aV\u6e29\u5dde\u5357
p197
aV\u6e29\u5dde\u7ad9
p198
aV\u77f3\u5bb6\u5e84\u5317
p199
aV\u77f3\u5bb6\u5e84\u7ad9
p200
aV\u5317\u4eac\u4e1c
p201
aV\u6d4e\u5357\u4e1c
p202
aV\u6d4e\u5357
p203
aV\u6d4e\u5357\u897f
p204
aV\u5357\u660c\u7ad9
p205
aV\u5357\u660c\u897f
p206
aV\u5357\u5b81\u7ad9
p207
aV\u90d1\u5dde\u7ad9
p208
aV\u90d1\u5dde\u4e1c
p209
aV\u90d1\u5dde\u897f
p210
aV\u4e5d\u6c5f\u7ad9
p211
aV\u5b89\u5e86\u7ad9
p212
aV\u5b89\u5e86\u897f
p213
aV\u516d\u5b89\u7ad9
p214
aV\u9ec4\u5c71\u5317
p215
aV\u9ec4\u5c71\u7ad9
p216
aV\u6842\u6797\u5317
p217
aV\u6842\u6797\u7ad9
p218
aV\u4fdd\u5b9a\u7ad9
p219
aV\u4fdd\u5b9a\u4e1c
p220
aV\u5e38\u5fb7\u7ad9
p221
aV\u5927\u5e86\u897f
p222
aV\u5927\u5e86\u4e1c
p223
aV\u5927\u5e86\u7ad9
p224
aV\u4f5b\u5c71\u7ad9
p225
aV\u961c\u65b0\u7ad9
p226
aV\u8d35\u9633\u7ad9
p227
aV\u8d35\u9633\u5317
p228
aV\u6d77\u53e3\u7ad9
p229
aV\u6dee\u5357\u4e1c
p230
aV\u6dee\u5357
p231
aV\u5409\u6797\u7ad9
p232
aV\u6cc9\u5dde\u7ad9
p233
aV\u65e5\u7167\u7ad9
p234
aV\u5546\u4e18\u5357
p235
aV\u5546\u4e18\u7ad9
p236
aV\u5bbf\u5dde\u4e1c
p237
aV\u5bbf\u5dde\u7ad9
p238
aV\u94dc\u9675\u5317
p239
aV\u829c\u6e56\u7ad9
p240
aV\u65e0\u9521\u4e1c
p241
aV\u65e0\u9521\u7ad9
p242
aV\u5f90\u5dde\u7ad9
p243
aV\u5f90\u5dde\u4e1c
p244
aV\u4fe1\u9633\u7ad9
p245
aV\u4fe1\u9633\u4e1c
p246
aV\u4e0a\u6d77\u5357
p247
aV\u5e7f\u5dde\u7ad9
p248
aV\u5e7f\u5dde\u5357
p249
aV\u5e7f\u5dde\u4e1c
p250
aV\u6df1\u5733\u576a\u5c71\u7ad9
p251
aV\u6df1\u5733\u4e1c
p252
aV\u4e0a\u6d77\u897f
p253
aV\u62c9\u8428\u7ad9
p254
aV\u798f\u5dde\u5357
p255
aV\u798f\u5dde\u7ad9
p256
aV\u82cf\u5dde\u56ed\u533a\u7ad9
p257
aV\u82cf\u5dde\u65b0\u533a\u7ad9
p258
aV\u6c60\u5dde\u7ad9
p259
aV\u94dc\u9675\u7ad9
p260
aV\u65e0\u9521\u65b0\u533a\u7ad9
p261
aV\u897f\u5b89\u5357
p262
aV\u519b\u7cae\u57ce\u5317
p263
aV\u6768\u67f3\u9752\u7ad9
p264
aV\u6ee8\u6d77\u7ad9
p265
aV\u5e7f\u5dde\u5317
p266
aV\u6df1\u5733\u897f
p267
aV\u4e09\u4e9a\u7ad9
p268
aV\u4e1c\u839e\u4e1c
p269
aV\u4e1c\u839e\u7ad9
p270
aV\u6885\u5dde\u7ad9
p271
aV\u798f\u7530\u7ad9
p272
aV\u4e4c\u9c81\u6728\u9f50\u7ad9
p273
aV\u5408\u80a5\u5317\u57ce\u7ad9
p274
aV\u91cd\u5e86\u5317
p275
aV\u6b59\u53bf\u7ad9
p276
aV\u6606\u660e\u7ad9
p277
aV\u5317\u789a\u7ad9
p278
aV\u4e3d\u6c5f\u7ad9
p279
aV\u5927\u7406\u7ad9
p280
aV\u7ef5\u9633\u7ad9
p281
aV\u6606\u660e\u5357
p282
aV\u6c38\u6cf0\u7ad9
p283
aV\u7f57\u6e90\u7ad9
p284
aV\u8fde\u6c5f\u7ad9
p285
aV\u5e84\u6865\u7ad9
p286
aV\u6d77\u53e3\u4e1c
p287
aV\u897f\u5b81\u7ad9
p288
aV\u6210\u90fd\u5357
p289
aV\u91cd\u5e86\u7ad9
p290
aV\u5f00\u5c01\u7ad9
p291
aV\u6ee8\u6c5f\u7ad9
p292
aV\u798f\u6e05\u7ad9
p293
aV\u5357\u5b81\u4e1c
p294
aV\u864e\u95e8\u7ad9
p295
aV\u5e90\u5c71\u7ad9
p296
aV\u5170\u5dde\u897f
p297
aV\u4e4c\u9c81\u6728\u9f50\u5357
p298
aV\u9ad8\u9091\u7ad9
p299
aV\u5f00\u5c01\u5317
p300
aV\u5858\u6cbd\u7ad9
p301
aV\u8fdb\u8d24\u7ad9
p302
aV\u8fdb\u8d24\u5357
p303
aV\u6842\u6797\u897f
p304
aV\u767d\u6d0b\u6dc0\u7ad9
p305
aV\u677e\u6c5f\u5357
p306
aV\u6850\u57ce\u7ad9
p307
aV\u60e0\u5c71\u7ad9
p308
aV\u4e0a\u6d77\u8679\u6865\u7ad9
p309
aV\u5317\u4eac\u5357
p310
aV\u4e0a\u6d77\u7ad9
p311
aV\u5317\u4eac\u7ad9
p312
aV\u5929\u6d25\u897f
p313
aV\u5317\u4eac\u897f
p314
aV\u5929\u6d25\u7ad9
p315
aV\u5929\u6d25\u5357
p316
aV\u6df1\u5733\u5317
p317
aV\u6df1\u5733\u7ad9
p318
aV\u5408\u80a5\u5357
p319
aV\u5408\u80a5\u7ad9
p320
aV\u53a6\u95e8\u5317
p321
aV\u53a6\u95e8\u7ad9
p322
aV\u5357\u4eac\u7ad9
p323
aV\u5357\u4eac\u5357
p324
aV\u6210\u90fd\u4e1c
p325
aV\u6210\u90fd\u7ad9
p326
aV\u897f\u5b89\u7ad9
p327
aV\u897f\u5b89\u5317
p328
aV\u54c8\u5c14\u6ee8\u7ad9
p329
aV\u54c8\u5c14\u6ee8\u897f
p330
aV\u54c8\u5c14\u6ee8\u5317
p331
aV\u6c88\u9633\u5317
p332
aV\u6c88\u9633\u7ad9
p333
aV\u6c88\u9633\u5357
p334
aV\u5927\u8fde\u7ad9
p335
aV\u5927\u8fde\u5317
p336
aV\u676d\u5dde\u4e1c
p337
aV\u676d\u5dde\u7ad9
p338
aV\u957f\u6c99\u7ad9
p339
aV\u957f\u6c99\u5357
p340
aV\u6b66\u660c\u7ad9
p341
aV\u6c49\u53e3\u7ad9
p342
aV\u6b66\u6c49\u7ad9
p343
aV\u5170\u5dde\u7ad9
p344
aV\u9752\u5c9b\u5317
p345
aV\u9752\u5c9b\u7ad9
p346
aV\u5f20\u5bb6\u754c\u7ad9
p347
aV\u547c\u548c\u6d69\u7279\u4e1c
p348
aV\u547c\u548c\u6d69\u7279\u7ad9
p349
aV\u5317\u4eac\u5317
p350
aV\u957f\u6625\u7ad9
p351
aV\u957f\u6625\u897f
p352
aV\u961c\u9633\u7ad9
p353
aV\u868c\u57e0\u7ad9
p354
aV\u868c\u57e0\u5357
p355
aV\u82cf\u5dde\u5317
p356
aV\u82cf\u5dde\u7ad9
p357
aV\u5b81\u6ce2\u7ad9
p358
aV\u6e29\u5dde\u5357
p359
aV\u6e29\u5dde\u7ad9
p360
aV\u77f3\u5bb6\u5e84\u5317
p361
aV\u77f3\u5bb6\u5e84\u7ad9
p362
aV\u5317\u4eac\u4e1c
p363
aV\u6d4e\u5357\u4e1c
p364
aV\u6d4e\u5357
p365
aV\u6d4e\u5357\u897f
p366
aV\u5357\u660c\u7ad9
p367
aV\u5357\u660c\u897f
p368
aV\u5357\u5b81\u7ad9
p369
aV\u90d1\u5dde\u7ad9
p370
aV\u90d1\u5dde\u4e1c
p371
aV\u90d1\u5dde\u897f
p372
aV\u4e5d\u6c5f\u7ad9
p373
aV\u5b89\u5e86\u7ad9
p374
aV\u5b89\u5e86\u897f
p375
aV\u516d\u5b89\u7ad9
p376
aV\u9ec4\u5c71\u5317
p377
aV\u9ec4\u5c71\u7ad9
p378
aV\u6842\u6797\u5317
p379
aV\u6842\u6797\u7ad9
p380
aV\u4fdd\u5b9a\u7ad9
p381
aV\u4fdd\u5b9a\u4e1c
p382
aV\u5e38\u5fb7\u7ad9
p383
aV\u5927\u5e86\u897f
p384
aV\u5927\u5e86\u4e1c
p385
aV\u5927\u5e86\u7ad9
p386
aV\u4f5b\u5c71\u7ad9
p387
aV\u961c\u65b0\u7ad9
p388
aV\u8d35\u9633\u7ad9
p389
aV\u8d35\u9633\u5317
p390
aV\u6d77\u53e3\u7ad9
p391
aV\u6dee\u5357\u4e1c
p392
aV\u6dee\u5357
p393
aV\u5409\u6797\u7ad9
p394
aV\u6cc9\u5dde\u7ad9
p395
aV\u65e5\u7167\u7ad9
p396
aV\u5546\u4e18\u5357
p397
aV\u5546\u4e18\u7ad9
p398
aV\u5bbf\u5dde\u4e1c
p399
aV\u5bbf\u5dde\u7ad9
p400
aV\u94dc\u9675\u5317
p401
aV\u829c\u6e56\u7ad9
p402
aV\u65e0\u9521\u4e1c
p403
aV\u65e0\u9521\u7ad9
p404
aV\u5f90\u5dde\u7ad9
p405
aV\u5f90\u5dde\u4e1c
p406
aV\u4fe1\u9633\u7ad9
p407
aV\u4fe1\u9633\u4e1c
p408
aV\u4e0a\u6d77\u5357
p409
aV\u5e7f\u5dde\u7ad9
p410
aV\u5e7f\u5dde\u5357
p411
aV\u5e7f\u5dde\u4e1c
p412
aV\u6df1\u5733\u576a\u5c71\u7ad9
p413
aV\u6df1\u5733\u4e1c
p414
aV\u4e0a\u6d77\u897f
p415
aV\u62c9\u8428\u7ad9
p416
aV\u798f\u5dde\u5357
p417
aV\u798f\u5dde\u7ad9
p418
aV\u82cf\u5dde\u56ed\u533a\u7ad9
p419
aV\u82cf\u5dde\u65b0\u533a\u7ad9
p420
aV\u6c60\u5dde\u7ad9
p421
aV\u94dc\u9675\u7ad9
p422
aV\u65e0\u9521\u65b0\u533a\u7ad9
p423
aV\u897f\u5b89\u5357
p424
aV\u519b\u7cae\u57ce\u5317
p425
aV\u6768\u67f3\u9752\u7ad9
p426
aV\u6ee8\u6d77\u7ad9
p427
aV\u5e7f\u5dde\u5317
p428
aV\u6df1\u5733\u897f
p429
aV\u4e09\u4e9a\u7ad9
p430
aV\u4e1c\u839e\u4e1c
p431
aV\u4e1c\u839e\u7ad9
p432
aV\u6885\u5dde\u7ad9
p433
aV\u798f\u7530\u7ad9
p434
aV\u4e4c\u9c81\u6728\u9f50\u7ad9
p435
aV\u5408\u80a5\u5317\u57ce\u7ad9
p436
aV\u91cd\u5e86\u5317
p437
aV\u6b59\u53bf\u7ad9
p438
aV\u6606\u660e\u7ad9
p439
aV\u5317\u789a\u7ad9
p440
aV\u4e3d\u6c5f\u7ad9
p441
aV\u5927\u7406\u7ad9
p442
aV\u7ef5\u9633\u7ad9
p443
aV\u6606\u660e\u5357
p444
aV\u6c38\u6cf0\u7ad9
p445
aV\u7f57\u6e90\u7ad9
p446
aV\u8fde\u6c5f\u7ad9
p447
aV\u5e84\u6865\u7ad9
p448
aV\u6d77\u53e3\u4e1c
p449
aV\u897f\u5b81\u7ad9
p450
aV\u6210\u90fd\u5357
p451
aV\u91cd\u5e86\u7ad9
p452
aV\u5f00\u5c01\u7ad9
p453
aV\u6ee8\u6c5f\u7ad9
p454
aV\u798f\u6e05\u7ad9
p455
aV\u5357\u5b81\u4e1c
p456
aV\u864e\u95e8\u7ad9
p457
aV\u5e90\u5c71\u7ad9
p458
aV\u5170\u5dde\u897f
p459
aV\u4e4c\u9c81\u6728\u9f50\u5357
p460
aV\u9ad8\u9091\u7ad9
p461
aV\u5f00\u5c01\u5317
p462
aV\u5858\u6cbd\u7ad9
p463
aV\u8fdb\u8d24\u7ad9
p464
aV\u8fdb\u8d24\u5357
p465
aV\u6842\u6797\u897f
p466
aV\u767d\u6d0b\u6dc0\u7ad9
p467
aV\u677e\u6c5f\u5357
p468
aV\u6850\u57ce\u7ad9
p469
aV\u60e0\u5c71\u7ad9
p470
aV\u4e0a\u6d77\u8679\u6865\u7ad9
p471
aV\u5317\u4eac\u5357
p472
aV\u4e0a\u6d77\u7ad9
p473
aV\u5317\u4eac\u7ad9
p474
aV\u5929\u6d25\u897f
p475
aV\u5317\u4eac\u897f
p476
aV\u5929\u6d25\u7ad9
p477
aV\u5929\u6d25\u5357
p478
aV\u6df1\u5733\u5317
p479
aV\u6df1\u5733\u7ad9
p480
aV\u5408\u80a5\u5357
p481
aV\u5408\u80a5\u7ad9
p482
aV\u53a6\u95e8\u5317
p483
aV\u53a6\u95e8\u7ad9
p484
aV\u5357\u4eac\u7ad9
p485
aV\u5357\u4eac\u5357
p486
aV\u6210\u90fd\u4e1c
p487
aV\u6210\u90fd\u7ad9
p488
aV\u897f\u5b89\u7ad9
p489
aV\u897f\u5b89\u5317
p490
aV\u54c8\u5c14\u6ee8\u7ad9
p491
aV\u54c8\u5c14\u6ee8\u897f
p492
aV\u54c8\u5c14\u6ee8\u5317
p493
aV\u6c88\u9633\u5317
p494
aV\u6c88\u9633\u7ad9
p495
aV\u6c88\u9633\u5357
p496
aV\u5927\u8fde\u7ad9
p497
aV\u5927\u8fde\u5317
p498
aV\u676d\u5dde\u4e1c
p499
aV\u676d\u5dde\u7ad9
p500
aV\u957f\u6c99\u7ad9
p501
aV\u957f\u6c99\u5357
p502
aV\u6b66\u660c\u7ad9
p503
aV\u6c49\u53e3\u7ad9
p504
aV\u6b66\u6c49\u7ad9
p505
aV\u5170\u5dde\u7ad9
p506
aV\u9752\u5c9b\u5317
p507
aV\u9752\u5c9b\u7ad9
p508
aV\u5f20\u5bb6\u754c\u7ad9
p509
aV\u547c\u548c\u6d69\u7279\u4e1c
p510
aV\u547c\u548c\u6d69\u7279\u7ad9
p511
aV\u5317\u4eac\u5317
p512
aV\u957f\u6625\u7ad9
p513
aV\u957f\u6625\u897f
p514
aV\u961c\u9633\u7ad9
p515
aV\u868c\u57e0\u7ad9
p516
aV\u868c\u57e0\u5357
p517
aV\u82cf\u5dde\u5317
p518
aV\u82cf\u5dde\u7ad9
p519
aV\u5b81\u6ce2\u7ad9
p520
aV\u6e29\u5dde\u5357
p521
aV\u6e29\u5dde\u7ad9
p522
aV\u77f3\u5bb6\u5e84\u5317
p523
aV\u77f3\u5bb6\u5e84\u7ad9
p524
aV\u5317\u4eac\u4e1c
p525
aV\u6d4e\u5357\u4e1c
p526
aV\u6d4e\u5357
p527
aV\u6d4e\u5357\u897f
p528
aV\u5357\u660c\u7ad9
p529
aV\u5357\u660c\u897f
p530
aV\u5357\u5b81\u7ad9
p531
aV\u90d1\u5dde\u7ad9
p532
aV\u90d1\u5dde\u4e1c
p533
aV\u90d1\u5dde\u897f
p534
aV\u4e5d\u6c5f\u7ad9
p535
aV\u5b89\u5e86\u7ad9
p536
aV\u5b89\u5e86\u897f
p537
aV\u516d\u5b89\u7ad9
p538
aV\u9ec4\u5c71\u5317
p539
aV\u9ec4\u5c71\u7ad9
p540
aV\u6842\u6797\u5317
p541
aV\u6842\u6797\u7ad9
p542
aV\u4fdd\u5b9a\u7ad9
p543
aV\u4fdd\u5b9a\u4e1c
p544
aV\u5e38\u5fb7\u7ad9
p545
aV\u5927\u5e86\u897f
p546
aV\u5927\u5e86\u4e1c
p547
aV\u5927\u5e86\u7ad9
p548
aV\u4f5b\u5c71\u7ad9
p549
aV\u961c\u65b0\u7ad9
p550
aV\u8d35\u9633\u7ad9
p551
aV\u8d35\u9633\u5317
p552
aV\u6d77\u53e3\u7ad9
p553
aV\u6dee\u5357\u4e1c
p554
aV\u6dee\u5357
p555
aV\u5409\u6797\u7ad9
p556
aV\u6cc9\u5dde\u7ad9
p557
aV\u65e5\u7167\u7ad9
p558
aV\u5546\u4e18\u5357
p559
aV\u5546\u4e18\u7ad9
p560
aV\u5bbf\u5dde\u4e1c
p561
aV\u5bbf\u5dde\u7ad9
p562
aV\u94dc\u9675\u5317
p563
aV\u829c\u6e56\u7ad9
p564
aV\u65e0\u9521\u4e1c
p565
aV\u65e0\u9521\u7ad9
p566
aV\u5f90\u5dde\u7ad9
p567
aV\u5f90\u5dde\u4e1c
p568
aV\u4fe1\u9633\u7ad9
p569
aV\u4fe1\u9633\u4e1c
p570
aV\u4e0a\u6d77\u5357
p571
aV\u5e7f\u5dde\u7ad9
p572
aV\u5e7f\u5dde\u5357
p573
aV\u5e7f\u5dde\u4e1c
p574
aV\u6df1\u5733\u576a\u5c71\u7ad9
p575
aV\u6df1\u5733\u4e1c
p576
aV\u4e0a\u6d77\u897f
p577
aV\u62c9\u8428\u7ad9
p578
aV\u798f\u5dde\u5357
p579
aV\u798f\u5dde\u7ad9
p580
aV\u82cf\u5dde\u56ed\u533a\u7ad9
p581
aV\u82cf\u5dde\u65b0\u533a\u7ad9
p582
aV\u6c60\u5dde\u7ad9
p583
aV\u94dc\u9675\u7ad9
p584
aV\u65e0\u9521\u65b0\u533a\u7ad9
p585
aV\u897f\u5b89\u5357
p586
aV\u519b\u7cae\u57ce\u5317
p587
aV\u6768\u67f3\u9752\u7ad9
p588
aV\u6ee8\u6d77\u7ad9
p589
aV\u5e7f\u5dde\u5317
p590
aV\u6df1\u5733\u897f
p591
aV\u4e09\u4e9a\u7ad9
p592
aV\u4e1c\u839e\u4e1c
p593
aV\u4e1c\u839e\u7ad9
p594
aV\u6885\u5dde\u7ad9
p595
aV\u798f\u7530\u7ad9
p596
aV\u4e4c\u9c81\u6728\u9f50\u7ad9
p597
aV\u5408\u80a5\u5317\u57ce\u7ad9
p598
aV\u91cd\u5e86\u5317
p599
aV\u6b59\u53bf\u7ad9
p600
aV\u6606\u660e\u7ad9
p601
aV\u5317\u789a\u7ad9
p602
aV\u4e3d\u6c5f\u7ad9
p603
aV\u5927\u7406\u7ad9
p604
aV\u7ef5\u9633\u7ad9
p605
aV\u6606\u660e\u5357
p606
aV\u6c38\u6cf0\u7ad9
p607
aV\u7f57\u6e90\u7ad9
p608
aV\u8fde\u6c5f\u7ad9
p609
aV\u5e84\u6865\u7ad9
p610
aV\u6d77\u53e3\u4e1c
p611
aV\u897f\u5b81\u7ad9
p612
aV\u6210\u90fd\u5357
p613
aV\u91cd\u5e86\u7ad9
p614
aV\u5f00\u5c01\u7ad9
p615
aV\u6ee8\u6c5f\u7ad9
p616
aV\u798f\u6e05\u7ad9
p617
aV\u5357\u5b81\u4e1c
p618
aV\u864e\u95e8\u7ad9
p619
aV\u5e90\u5c71\u7ad9
p620
aV\u5170\u5dde\u897f
p621
aV\u4e4c\u9c81\u6728\u9f50\u5357
p622
aV\u9ad8\u9091\u7ad9
p623
aV\u5f00\u5c01\u5317
p624
aV\u5858\u6cbd\u7ad9
p625
aV\u8fdb\u8d24\u7ad9
p626
aV\u8fdb\u8d24\u5357
p627
aV\u6842\u6797\u897f
p628
aV\u767d\u6d0b\u6dc0\u7ad9
p629
aV\u677e\u6c5f\u5357
p630
aV\u6850\u57ce\u7ad9
p631
aV\u60e0\u5c71\u7ad9
p632
aV\u4e0a\u6d77\u8679\u6865\u7ad9
p633
aV\u5317\u4eac\u5357
p634
aV\u4e0a\u6d77\u7ad9
p635
aV\u5317\u4eac\u7ad9
p636
aV\u5929\u6d25\u897f
p637
aV\u5317\u4eac\u897f
p638
aV\u5929\u6d25\u7ad9
p639
aV\u5929\u6d25\u5357
p640
aV\u6df1\u5733\u5317
p641
aV\u6df1\u5733\u7ad9
p642
aV\u5408\u80a5\u5357
p643
aV\u5408\u80a5\u7ad9
p644
aV\u53a6\u95e8\u5317
p645
aV\u53a6\u95e8\u7ad9
p646
aV\u5357\u4eac\u7ad9
p647
aV\u5357\u4eac\u5357
p648
aV\u6210\u90fd\u4e1c
p649
aV\u6210\u90fd\u7ad9
p650
aV\u897f\u5b89\u7ad9
p651
aV\u897f\u5b89\u5317
p652
aV\u54c8\u5c14\u6ee8\u7ad9
p653
aV\u54c8\u5c14\u6ee8\u897f
p654
aV\u54c8\u5c14\u6ee8\u5317
p655
aV\u6c88\u9633\u5317
p656
aV\u6c88\u9633\u7ad9
p657
aV\u6c88\u9633\u5357
p658
aV\u5927\u8fde\u7ad9
p659
aV\u5927\u8fde\u5317
p660
aV\u676d\u5dde\u4e1c
p661
aV\u676d\u5dde\u7ad9
p662
aV\u957f\u6c99\u7ad9
p663
aV\u957f\u6c99\u5357
p664
aV\u6b66\u660c\u7ad9
p665
aV\u6c49\u53e3\u7ad9
p666
aV\u6b66\u6c49\u7ad9
p667
aV\u5170\u5dde\u7ad9
p668
aV\u9752\u5c9b\u5317
p669
aV\u9752\u5c9b\u7ad9
p670
aV\u5f20\u5bb6\u754c\u7ad9
p671
aV\u547c\u548c\u6d69\u7279\u4e1c
p672
aV\u547c\u548c\u6d69\u7279\u7ad9
p673
aV\u5317\u4eac\u5317
p674
aV\u957f\u6625\u7ad9
p675
aV\u957f\u6625\u897f
p676
aV\u961c\u9633\u7ad9
p677
aV\u868c\u57e0\u7ad9
p678
aV\u868c\u57e0\u5357
p679
aV\u82cf\u5dde\u5317
p680
aV\u82cf\u5dde\u7ad9
p681
aV\u5b81\u6ce2\u7ad9
p682
aV\u6e29\u5dde\u5357
p683
aV\u6e29\u5dde\u7ad9
p684
aV\u77f3\u5bb6\u5e84\u5317
p685
aV\u77f3\u5bb6\u5e84\u7ad9
p686
aV\u5317\u4eac\u4e1c
p687
aV\u6d4e\u5357\u4e1c
p688
aV\u6d4e\u5357
p689
aV\u6d4e\u5357\u897f
p690
aV\u5357\u660c\u7ad9
p691
aV\u5357\u660c\u897f
p692
aV\u5357\u5b81\u7ad9
p693
aV\u90d1\u5dde\u7ad9
p694
aV\u90d1\u5dde\u4e1c
p695
aV\u90d1\u5dde\u897f
p696
aV\u4e5d\u6c5f\u7ad9
p697
aV\u5b89\u5e86\u7ad9
p698
aV\u5b89\u5e86\u897f
p699
aV\u516d\u5b89\u7ad9
p700
aV\u9ec4\u5c71\u5317
p701
aV\u9ec4\u5c71\u7ad9
p702
aV\u6842\u6797\u5317
p703
aV\u6842\u6797\u7ad9
p704
aV\u4fdd\u5b9a\u7ad9
p705
aV\u4fdd\u5b9a\u4e1c
p706
aV\u5e38\u5fb7\u7ad9
p707
aV\u5927\u5e86\u897f
p708
aV\u5927\u5e86\u4e1c
p709
aV\u5927\u5e86\u7ad9
p710
aV\u4f5b\u5c71\u7ad9
p711
aV\u961c\u65b0\u7ad9
p712
aV\u8d35\u9633\u7ad9
p713
aV\u8d35\u9633\u5317
p714
aV\u6d77\u53e3\u7ad9
p715
aV\u6dee\u5357\u4e1c
p716
aV\u6dee\u5357
p717
aV\u5409\u6797\u7ad9
p718
aV\u6cc9\u5dde\u7ad9
p719
aV\u65e5\u7167\u7ad9
p720
aV\u5546\u4e18\u5357
p721
aV\u5546\u4e18\u7ad9
p722
aV\u5bbf\u5dde\u4e1c
p723
aV\u5bbf\u5dde\u7ad9
p724
aV\u94dc\u9675\u5317
p725
aV\u829c\u6e56\u7ad9
p726
aV\u65e0\u9521\u4e1c
p727
aV\u65e0\u9521\u7ad9
p728
aV\u5f90\u5dde\u7ad9
p729
aV\u5f90\u5dde\u4e1c
p730
aV\u4fe1\u9633\u7ad9
p731
aV\u4fe1\u9633\u4e1c
p732
aV\u4e0a\u6d77\u5357
p733
aV\u5e7f\u5dde\u7ad9
p734
aV\u5e7f\u5dde\u5357
p735
aV\u5e7f\u5dde\u4e1c
p736
aV\u6df1\u5733\u576a\u5c71\u7ad9
p737
aV\u6df1\u5733\u4e1c
p738
aV\u4e0a\u6d77\u897f
p739
aV\u62c9\u8428\u7ad9
p740
aV\u798f\u5dde\u5357
p741
aV\u798f\u5dde\u7ad9
p742
aV\u82cf\u5dde\u56ed\u533a\u7ad9
p743
aV\u82cf\u5dde\u65b0\u533a\u7ad9
p744
aV\u6c60\u5dde\u7ad9
p745
aV\u94dc\u9675\u7ad9
p746
aV\u65e0\u9521\u65b0\u533a\u7ad9
p747
aV\u897f\u5b89\u5357
p748
aV\u519b\u7cae\u57ce\u5317
p749
aV\u6768\u67f3\u9752\u7ad9
p750
aV\u6ee8\u6d77\u7ad9
p751
aV\u5e7f\u5dde\u5317
p752
aV\u6df1\u5733\u897f
p753
aV\u4e09\u4e9a\u7ad9
p754
aV\u4e1c\u839e\u4e1c
p755
aV\u4e1c\u839e\u7ad9
p756
aV\u6885\u5dde\u7ad9
p757
aV\u798f\u7530\u7ad9
p758
aV\u4e4c\u9c81\u6728\u9f50\u7ad9
p759
aV\u5408\u80a5\u5317\u57ce\u7ad9
p760
aV\u91cd\u5e86\u5317
p761
aV\u6b59\u53bf\u7ad9
p762
aV\u6606\u660e\u7ad9
p763
aV\u5317\u789a\u7ad9
p764
aV\u4e3d\u6c5f\u7ad9
p765
aV\u5927\u7406\u7ad9
p766
aV\u7ef5\u9633\u7ad9
p767
aV\u6606\u660e\u5357
p768
aV\u6c38\u6cf0\u7ad9
p769
aV\u7f57\u6e90\u7ad9
p770
aV\u8fde\u6c5f\u7ad9
p771
aV\u5e84\u6865\u7ad9
p772
aV\u6d77\u53e3\u4e1c
p773
aV\u897f\u5b81\u7ad9
p774
aV\u6210\u90fd\u5357
p775
aV\u91cd\u5e86\u7ad9
p776
aV\u5f00\u5c01\u7ad9
p777
aV\u6ee8\u6c5f\u7ad9
p778
aV\u798f\u6e05\u7ad9
p779
aV\u5357\u5b81\u4e1c
p780
aV\u864e\u95e8\u7ad9
p781
aV\u5e90\u5c71\u7ad9
p782
aV\u5170\u5dde\u897f
p783
aV\u4e4c\u9c81\u6728\u9f50\u5357
p784
aV\u9ad8\u9091\u7ad9
p785
aV\u5f00\u5c01\u5317
p786
aV\u5858\u6cbd\u7ad9
p787
aV\u8fdb\u8d24\u7ad9
p788
aV\u8fdb\u8d24\u5357
p789
aV\u6842\u6797\u897f
p790
aV\u767d\u6d0b\u6dc0\u7ad9
p791
aV\u677e\u6c5f\u5357
p792
aV\u6850\u57ce\u7ad9
p793
aV\u60e0\u5c71\u7ad9
p794
aV\u4e0a\u6d77\u8679\u6865\u7ad9
p795
aV\u5317\u4eac\u5357
p796
aV\u4e0a\u6d77\u7ad9
p797
aV\u5317\u4eac\u7ad9
p798
aV\u5929\u6d25\u897f
p799
aV\u5317\u4eac\u897f
p800
aV\u5929\u6d25\u7ad9
p801
aV\u5929\u6d25\u5357
p802
aV\u6df1\u5733\u5317
p803
aV\u6df1\u5733\u7ad9
p804
aV\u5408\u80a5\u5357
p805
aV\u5408\u80a5\u7ad9
p806
aV\u53a6\u95e8\u5317
p807
aV\u53a6\u95e8\u7ad9
p808
aV\u5357\u4eac\u7ad9
p809
aV\u5357\u4eac\u5357
p810
aV\u6210\u90fd\u4e1c
p811
aV\u6210\u90fd\u7ad9
p812
aV\u897f\u5b89\u7ad9
p813
aV\u897f\u5b89\u5317
p814
aV\u54c8\u5c14\u6ee8\u7ad9
p815
aV\u54c8\u5c14\u6ee8\u897f
p816
aV\u54c8\u5c14\u6ee8\u5317
p817
aV\u6c88\u9633\u5317
p818
aV\u6c88\u9633\u7ad9
p819
aV\u6c88\u9633\u5357
p820
aV\u5927\u8fde\u7ad9
p821
aV\u5927\u8fde\u5317
p822
aV\u676d\u5dde\u4e1c
p823
aV\u676d\u5dde\u7ad9
p824
aV\u957f\u6c99\u7ad9
p825
aV\u957f\u6c99\u5357
p826
aV\u6b66\u660c\u7ad9
p827
aV\u6c49\u53e3\u7ad9
p828
aV\u6b66\u6c49\u7ad9
p829
aV\u5170\u5dde\u7ad9
p830
aV\u9752\u5c9b\u5317
p831
aV\u9752\u5c9b\u7ad9
p832
aV\u5f20\u5bb6\u754c\u7ad9
p833
aV\u547c\u548c\u6d69\u7279\u4e1c
p834
aV\u547c\u548c\u6d69\u7279\u7ad9
p835
aV\u5317\u4eac\u5317
p836
aV\u957f\u6625\u7ad9
p837
aV\u957f\u6625\u897f
p838
aV\u961c\u9633\u7ad9
p839
aV\u868c\u57e0\u7ad9
p840
aV\u868c\u57e0\u5357
p841
aV\u82cf\u5dde\u5317
p842
aV\u82cf\u5dde\u7ad9
p843
aV\u5b81\u6ce2\u7ad9
p844
aV\u6e29\u5dde\u5357
p845
aV\u6e29\u5dde\u7ad9
p846
aV\u77f3\u5bb6\u5e84\u5317
p847
aV\u77f3\u5bb6\u5e84\u7ad9
p848
aV\u5317\u4eac\u4e1c
p849
aV\u6d4e\u5357\u4e1c
p850
aV\u6d4e\u5357
p851
aV\u6d4e\u5357\u897f
p852
aV\u5357\u660c\u7ad9
p853
aV\u5357\u660c\u897f
p854
aV\u5357\u5b81\u7ad9
p855
aV\u90d1\u5dde\u7ad9
p856
aV\u90d1\u5dde\u4e1c
p857
aV\u90d1\u5dde\u897f
p858
aV\u4e5d\u6c5f\u7ad9
p859
aV\u5b89\u5e86\u7ad9
p860
aV\u5b89\u5e86\u897f
p861
aV\u516d\u5b89\u7ad9
p862
aV\u9ec4\u5c71\u5317
p863
aV\u9ec4\u5c71\u7ad9
p864
aV\u6842\u6797\u5317
p865
aV\u6842\u6797\u7ad9
p866
aV\u4fdd\u5b9a\u7ad9
p867
aV\u4fdd\u5b9a\u4e1c
p868
aV\u5e38\u5fb7\u7ad9
p869
aV\u5927\u5e86\u897f
p870
aV\u5927\u5e86\u4e1c
p871
aV\u5927\u5e86\u7ad9
p872
aV\u4f5b\u5c71\u7ad9
p873
aV\u961c\u65b0\u7ad9
p874
aV\u8d35\u9633\u7ad9
p875
aV\u8d35\u9633\u5317
p876
aV\u6d77\u53e3\u7ad9
p877
aV\u6dee\u5357\u4e1c
p878
aV\u6dee\u5357
p879
aV\u5409\u6797\u7ad9
p880
aV\u6cc9\u5dde\u7ad9
p881
aV\u65e5\u7167\u7ad9
p882
aV\u5546\u4e18\u5357
p883
aV\u5546\u4e18\u7ad9
p884
aV\u5bbf\u5dde\u4e1c
p885
aV\u5bbf\u5dde\u7ad9
p886
aV\u94dc\u9675\u5317
p887
aV\u829c\u6e56\u7ad9
p888
aV\u65e0\u9521\u4e1c
p889
aV\u65e0\u9521\u7ad9
p890
aV\u5f90\u5dde\u7ad9
p891
aV\u5f90\u5dde\u4e1c
p892
aV\u4fe1\u9633\u7ad9
p893
aV\u4fe1\u9633\u4e1c
p894
aV\u4e0a\u6d77\u5357
p895
aV\u5e7f\u5dde\u7ad9
p896
aV\u5e7f\u5dde\u5357
p897
aV\u5e7f\u5dde\u4e1c
p898
aV\u6df1\u5733\u576a\u5c71\u7ad9
p899
aV\u6df1\u5733\u4e1c
p900
aV\u4e0a\u6d77\u897f
p901
aV\u62c9\u8428\u7ad9
p902
aV\u798f\u5dde\u5357
p903
aV\u798f\u5dde\u7ad9
p904
aV\u82cf\u5dde\u56ed\u533a\u7ad9
p905
aV\u82cf\u5dde\u65b0\u533a\u7ad9
p906
aV\u6c60\u5dde\u7ad9
p907
aV\u94dc\u9675\u7ad9
p908
aV\u65e0\u9521\u65b0\u533a\u7ad9
p909
aV\u897f\u5b89\u5357
p910
aV\u519b\u7cae\u57ce\u5317
p911
aV\u6768\u67f3\u9752\u7ad9
p912
aV\u6ee8\u6d77\u7ad9
p913
aV\u5e7f\u5dde\u5317
p914
aV\u6df1\u5733\u897f
p915
aV\u4e09\u4e9a\u7ad9
p916
aV\u4e1c\u839e\u4e1c
p917
aV\u4e1c\u839e\u7ad9
p918
aV\u6885\u5dde\u7ad9
p919
aV\u798f\u7530\u7ad9
p920
aV\u4e4c\u9c81\u6728\u9f50\u7ad9
p921
aV\u5408\u80a5\u5317\u57ce\u7ad9
p922
aV\u91cd\u5e86\u5317
p923
aV\u6b59\u53bf\u7ad9
p924
aV\u6606\u660e\u7ad9
p925
aV\u5317\u789a\u7ad9
p926
aV\u4e3d\u6c5f\u7ad9
p927
aV\u5927\u7406\u7ad9
p928
aV\u7ef5\u9633\u7ad9
p929
aV\u6606\u660e\u5357
p930
aV\u6c38\u6cf0\u7ad9
p931
aV\u7f57\u6e90\u7ad9
p932
aV\u8fde\u6c5f\u7ad9
p933
aV\u5e84\u6865\u7ad9
p934
aV\u6d77\u53e3\u4e1c
p935
aV\u897f\u5b81\u7ad9
p936
aV\u6210\u90fd\u5357
p937
aV\u91cd\u5e86\u7ad9
p938
aV\u5f00\u5c01\u7ad9
p939
aV\u6ee8\u6c5f\u7ad9
p940
aV\u798f\u6e05\u7ad9
p941
aV\u5357\u5b81\u4e1c
p942
aV\u864e\u95e8\u7ad9
p943
aV\u5e90\u5c71\u7ad9
p944
aV\u5170\u5dde\u897f
p945
aV\u4e4c\u9c81\u6728\u9f50\u5357
p946
aV\u9ad8\u9091\u7ad9
p947
aV\u5f00\u5c01\u5317
p948
aV\u5858\u6cbd\u7ad9
p949
aV\u8fdb\u8d24\u7ad9
p950
aV\u8fdb\u8d24\u5357
p951
aV\u6842\u6797\u897f
p952
aV\u767d\u6d0b\u6dc0\u7ad9
p953
aV\u677e\u6c5f\u5357
p954
aV\u6850\u57ce\u7ad9
p955
aV\u60e0\u5c71\u7ad9
p956
aV\u4e0a\u6d77\u8679\u6865\u7ad9
p957
aV\u5317\u4eac\u5357
p958
aV\u4e0a\u6d77\u7ad9
p959
aV\u5317\u4eac\u7ad9
p960
aV\u5929\u6d25\u897f
p961
aV\u5317\u4eac\u897f
p962
aV\u5929\u6d25\u7ad9
p963
aV\u5929\u6d25\u5357
p964
aV\u6df1\u5733\u5317
p965
aV\u6df1\u5733\u7ad9
p966
aV\u5408\u80a5\u5357
p967
aV\u5408\u80a5\u7ad9
p968
aV\u53a6\u95e8\u5317
p969
aV\u53a6\u95e8\u7ad9
p970
aV\u5357\u4eac\u7ad9
p971
aV\u5357\u4eac\u5357
p972
aV\u6210\u90fd\u4e1c
p973
aV\u6210\u90fd\u7ad9
p974
aV\u897f\u5b89\u7ad9
p975
aV\u897f\u5b89\u5317
p976
aV\u54c8\u5c14\u6ee8\u7ad9
p977
aV\u54c8\u5c14\u6ee8\u897f
p978
aV\u54c8\u5c14\u6ee8\u5317
p979
aV\u6c88\u9633\u5317
p980
aV\u6c88\u9633\u7ad9
p981
aV\u6c88\u9633\u5357
p982
aV\u5927\u8fde\u7ad9
p983
aV\u5927\u8fde\u5317
p984
aV\u676d\u5dde\u4e1c
p985
aV\u676d\u5dde\u7ad9
p986
aV\u957f\u6c99\u7ad9
p987
aV\u957f\u6c99\u5357
p988
aV\u6b66\u660c\u7ad9
p989
aV\u6c49\u53e3\u7ad9
p990
aV\u6b66\u6c49\u7ad9
p991
aV\u5170\u5dde\u7ad9
p992
aV\u9752\u5c9b\u5317
p993
aV\u9752\u5c9b\u7ad9
p994
aV\u5f20\u5bb6\u754c\u7ad9
p995
aV\u547c\u548c\u6d69\u7279\u4e1c
p996
aV\u547c\u548c\u6d69\u7279\u7ad9
p997
aV\u5317\u4eac\u5317
p998
aV\u957f\u6625\u7ad9
p999
aV\u957f\u6625\u897f
p1000
aV\u961c\u9633\u7ad9
p1001
aV\u868c\u57e0\u7ad9
p1002
aV\u868c\u57e0\u5357
p1003
aV\u82cf\u5dde\u5317
p1004
aV\u82cf\u5dde\u7ad9
p1005
aV\u5b81\u6ce2\u7ad9
p1006
aV\u6e29\u5dde\u5357
p1007
aV\u6e29\u5dde\u7ad9
p1008
aV\u77f3\u5bb6\u5e84\u5317
p1009
aV\u77f3\u5bb6\u5e84\u7ad9
p1010
aV\u5317\u4eac\u4e1c
p1011
aV\u6d4e\u5357\u4e1c
p1012
aV\u6d4e\u5357
p1013
aV\u6d4e\u5357\u897f
p1014
aV\u5357\u660c\u7ad9
p1015
aV\u5357\u660c\u897f
p1016
aV\u5357\u5b81\u7ad9
p1017
aV\u90d1\u5dde\u7ad9
p1018
aV\u90d1\u5dde\u4e1c
p1019
aV\u90d1\u5dde\u897f
p1020
aV\u4e5d\u6c5f\u7ad9
p1021
aV\u5b89\u5e86\u7ad9
p1022
aV\u5b89\u5e86\u897f
p1023
aV\u516d\u5b89\u7ad9
p1024
aV\u9ec4\u5c71\u5317
p1025
aV\u9ec4\u5c71\u7ad9
p1026
aV\u6842\u6797\u5317
p1027
aV\u6842\u6797\u7ad9
p1028
aV\u4fdd\u5b9a\u7ad9
p1029
aV\u4fdd\u5b9a\u4e1c
p1030
aV\u5e38\u5fb7\u7ad9
p1031
aV\u5927\u5e86\u897f
p1032
aV\u5927\u5e86\u4e1c
p1033
aV\u5927\u5e86\u7ad9
p1034
aV\u4f5b\u5c71\u7ad9
p1035
aV\u961c\u65b0\u7ad9
p1036
aV\u8d35\u9633\u7ad9
p1037
aV\u8d35\u9633\u5317
p1038
aV\u6d77\u53e3\u7ad9
p1039
aV\u6dee\u5357\u4e1c
p1040
aV\u6dee\u5357
p1041
aV\u5409\u6797\u7ad9
p1042
aV\u6cc9\u5dde\u7ad9
p1043
aV\u65e5\u7167\u7ad9
p1044
aV\u5546\u4e18\u5357
p1045
aV\u5546\u4e18\u7ad9
p1046
aV\u5bbf\u5dde\u4e1c
p1047
aV\u5bbf\u5dde\u7ad9
p1048
aV\u94dc\u9675\u5317
p1049
aV\u829c\u6e56\u7ad9
p1050
aV\u65e0\u9521\u4e1c
p1051
aV\u65e0\u9521\u7ad9
p1052
aV\u5f90\u5dde\u7ad9
p1053
aV\u5f90\u5dde\u4e1c
p1054
aV\u4fe1\u9633\u7ad9
p1055
aV\u4fe1\u9633\u4e1c
p1056
aV\u4e0a\u6d77\u5357
p1057
aV\u5e7f\u5dde\u7ad9
p1058
aV\u5e7f\u5dde\u5357
p1059
aV\u5e7f\u5dde\u4e1c
p1060
aV\u6df1\u5733\u576a\u5c71\u7ad9
p1061
aV\u6df1\u5733\u4e1c
p1062
aV\u4e0a\u6d77\u897f
p1063
aV\u62c9\u8428\u7ad9
p1064
aV\u798f\u5dde\u5357
p1065
aV\u798f\u5dde\u7ad9
p1066
aV\u82cf\u5dde\u56ed\u533a\u7ad9
p1067
aV\u82cf\u5dde\u65b0\u533a\u7ad9
p1068
aV\u6c60\u5dde\u7ad9
p1069
aV\u94dc\u9675\u7ad9
p1070
aV\u65e0\u9521\u65b0\u533a\u7ad9
p1071
aV\u897f\u5b89\u5357
p1072
aV\u519b\u7cae\u57ce\u5317
p1073
aV\u6768\u67f3\u9752\u7ad9
p1074
aV\u6ee8\u6d77\u7ad9
p1075
aV\u5e7f\u5dde\u5317
p1076
aV\u6df1\u5733\u897f
p1077
aV\u4e09\u4e9a\u7ad9
p1078
aV\u4e1c\u839e\u4e1c
p1079
aV\u4e1c\u839e\u7ad9
p1080
aV\u6885\u5dde\u7ad9
p1081
aV\u798f\u7530\u7ad9
p1082
aV\u4e4c\u9c81\u6728\u9f50\u7ad9
p1083
aV\u5408\u80a5\u5317\u57ce\u7ad9
p1084
aV\u91cd\u5e86\u5317
p1085
aV\u6b59\u53bf\u7ad9
p1086
aV\u6606\u660e\u7ad9
p1087
aV\u5317\u789a\u7ad9
p1088
aV\u4e3d\u6c5f\u7ad9
p1089
aV\u5927\u7406\u7ad9
p1090
aV\u7ef5\u9633\u7ad9
p1091
aV\u6606\u660e\u5357
p1092
aV\u6c38\u6cf0\u7ad9
p1093
aV\u7f57\u6e90\u7ad9
p1094
aV\u8fde\u6c5f\u7ad9
p1095
aV\u5e84\u6865\u7ad9
p1096
aV\u6d77\u53e3\u4e1c
p1097
aV\u897f\u5b81\u7ad9
p1098
aV\u6210\u90fd\u5357
p1099
aV\u91cd\u5e86\u7ad9
p1100
aV\u5f00\u5c01\u7ad9
p1101
aV\u6ee8\u6c5f\u7ad9
p1102
aV\u798f\u6e05\u7ad9
p1103
aV\u5357\u5b81\u4e1c
p1104
aV\u864e\u95e8\u7ad9
p1105
aV\u5e90\u5c71\u7ad9
p1106
aV\u5170\u5dde\u897f
p1107
aV\u4e4c\u9c81\u6728\u9f50\u5357
p1108
aV\u9ad8\u9091\u7ad9
p1109
aV\u5f00\u5c01\u5317
p1110
aV\u5858\u6cbd\u7ad9
p1111
aV\u8fdb\u8d24\u7ad9
p1112
aV\u8fdb\u8d24\u5357
p1113
aV\u6842\u6797\u897f
p1114
aV\u767d\u6d0b\u6dc0\u7ad9
p1115
aV\u677e\u6c5f\u5357
p1116
aV\u6850\u57ce\u7ad9
p1117
aV\u60e0\u5c71\u7ad9
p1118
aV\u4e0a\u6d77\u8679\u6865\u7ad9
p1119
aV\u5317\u4eac\u5357
p1120
aV\u4e0a\u6d77\u7ad9
p1121
aV\u5317\u4eac\u7ad9
p1122
aV\u5929\u6d25\u897f
p1123
aV\u5317\u4eac\u897f
p1124
aV\u5929\u6d25\u7ad9
p1125
aV\u5929\u6d25\u5357
p1126
aV\u6df1\u5733\u5317
p1127
aV\u6df1\u5733\u7ad9
p1128
aV\u5408\u80a5\u5357
p1129
aV\u5408\u80a5\u7ad9
p1130
aV\u53a6\u95e8\u5317
p1131
aV\u53a6\u95e8\u7ad9
p1132
aV\u5357\u4eac\u7ad9
p1133
aV\u5357\u4eac\u5357
p1134
aV\u6210\u90fd\u4e1c
p1135
aV\u6210\u90fd\u7ad9
p1136
aV\u897f\u5b89\u7ad9
p1137
aV\u897f\u5b89\u5317
p1138
aV\u54c8\u5c14\u6ee8\u7ad9
p1139
aV\u54c8\u5c14\u6ee8\u897f
p1140
aV\u54c8\u5c14\u6ee8\u5317
p1141
aV\u6c88\u9633\u5317
p1142
aV\u6c88\u9633\u7ad9
p1143
aV\u6c88\u9633\u5357
p1144
aV\u5927\u8fde\u7ad9
p1145
aV\u5927\u8fde\u5317
p1146
aV\u676d\u5dde\u4e1c
p1147
aV\u676d\u5dde\u7ad9
p1148
aV\u957f\u6c99\u7ad9
p1149
aV\u957f\u6c99\u5357
p1150
aV\u6b66\u660c\u7ad9
p1151
aV\u6c49\u53e3\u7ad9
p1152
aV\u6b66\u6c49\u7ad9
p1153
aV\u5170\u5dde\u7ad9
p1154
aV\u9752\u5c9b\u5317
p1155
aV\u9752\u5c9b\u7ad9
p1156
aV\u5f20\u5bb6\u754c\u7ad9
p1157
aV\u547c\u548c\u6d69\u7279\u4e1c
p1158
aV\u547c\u548c\u6d69\u7279\u7ad9
p1159
aV\u5317\u4eac\u5317
p1160
aV\u957f\u6625\u7ad9
p1161
aV\u957f\u6625\u897f
p1162
aV\u961c\u9633\u7ad9
p1163
aV\u868c\u57e0\u7ad9
p1164
aV\u868c\u57e0\u5357
p1165
aV\u82cf\u5dde\u5317
p1166
aV\u82cf\u5dde\u7ad9
p1167
aV\u5b81\u6ce2\u7ad9
p1168
aV\u6e29\u5dde\u5357
p1169
aV\u6e29\u5dde\u7ad9
p1170
aV\u77f3\u5bb6\u5e84\u5317
p1171
aV\u77f3\u5bb6\u5e84\u7ad9
p1172
aV\u5317\u4eac\u4e1c
p1173
aV\u6d4e\u5357\u4e1c
p1174
aV\u6d4e\u5357
p1175
aV\u6d4e\u5357\u897f
p1176
aV\u5357\u660c\u7ad9
p1177
aV\u5357\u660c\u897f
p1178
aV\u5357\u5b81\u7ad9
p1179
aV\u90d1\u5dde\u7ad9
p1180
aV\u90d1\u5dde\u4e1c
p1181
aV\u90d1\u5dde\u897f
p1182
aV\u4e5d\u6c5f\u7ad9
p1183
aV\u5b89\u5e86\u7ad9
p1184
aV\u5b89\u5e86\u897f
p1185
aV\u516d\u5b89\u7ad9
p1186
aV\u9ec4\u5c71\u5317
p1187
aV\u9ec4\u5c71\u7ad9
p1188
aV\u6842\u6797\u5317
p1189
aV\u6842\u6797\u7ad9
p1190
aV\u4fdd\u5b9a\u7ad9
p1191
aV\u4fdd\u5b9a\u4e1c
p1192
aV\u5e38\u5fb7\u7ad9
p1193
aV\u5927\u5e86\u897f
p1194
aV\u5927\u5e86\u4e1c
p1195
aV\u5927\u5e86\u7ad9
p1196
aV\u4f5b\u5c71\u7ad9
p1197
aV\u961c\u65b0\u7ad9
p1198
aV\u8d35\u9633\u7ad9
p1199
aV\u8d35\u9633\u5317
p1200
aV\u6d77\u53e3\u7ad9
p1201
aV\u6dee\u5357\u4e1c
p1202
aV\u6dee\u5357
p1203
aV\u5409\u6797\u7ad9
p1204
aV\u6cc9\u5dde\u7ad9
p1205
aV\u65e5\u7167\u7ad9
p1206
aV\u5546\u4e18\u5357
p1207
aV\u5546\u4e18\u7ad9
p1208
aV\u5bbf\u5dde\u4e1c
p1209
aV\u5bbf\u5dde\u7ad9
p1210
aV\u94dc\u9675\u5317
p1211
aV\u829c\u6e56\u7ad9
p1212
aV\u65e0\u9521\u4e1c
p1213
aV\u65e0\u9521\u7ad9
p1214
aV\u5f90\u5dde\u7ad9
p1215
aV\u5f90\u5dde\u4e1c
p1216
aV\u4fe1\u9633\u7ad9
p1217
aV\u4fe1\u9633\u4e1c
p1218
aV\u4e0a\u6d77\u5357
p1219
aV\u5e7f\u5dde\u7ad9
p1220
aV\u5e7f\u5dde\u5357
p1221
aV\u5e7f\u5dde\u4e1c
p1222
aV\u6df1\u5733\u576a\u5c71\u7ad9
p1223
aV\u6df1\u5733\u4e1c
p1224
aV\u4e0a\u6d77\u897f
p1225
aV\u62c9\u8428\u7ad9
p1226
aV\u798f\u5dde\u5357
p1227
aV\u798f\u5dde\u7ad9
p1228
aV\u82cf\u5dde\u56ed\u533a\u7ad9
p1229
aV\u82cf\u5dde\u65b0\u533a\u7ad9
p1230
aV\u6c60\u5dde\u7ad9
p1231
aV\u94dc\u9675\u7ad9
p1232
aV\u65e0\u9521\u65b0\u533a\u7ad9
p1233
aV\u897f\u5b89\u5357
p1234
aV\u519b\u7cae\u57ce\u5317
p1235
aV\u6768\u67f3\u9752\u7ad9
p1236
aV\u6ee8\u6d77\u7ad9
p1237
aV\u5e7f\u5dde\u5317
p1238
aV\u6df1\u5733\u897f
p1239
aV\u4e09\u4e9a\u7ad9
p1240
aV\u4e1c\u839e\u4e1c
p1241
aV\u4e1c\u839e\u7ad9
p1242
aV\u6885\u5dde\u7ad9
p1243
aV\u798f\u7530\u7ad9
p1244
aV\u4e4c\u9c81\u6728\u9f50\u7ad9
p1245
aV\u5408\u80a5\u5317\u57ce\u7ad9
p1246
aV\u91cd\u5e86\u5317
p1247
aV\u6b59\u53bf\u7ad9
p1248
aV\u6606\u660e\u7ad9
p1249
aV\u5317\u789a\u7ad9
p1250
aV\u4e3d\u6c5f\u7ad9
p1251
aV\u5927\u7406\u7ad9
p1252
aV\u7ef5\u9633\u7ad9
p1253
aV\u6606\u660e\u5357
p1254
aV\u6c38\u6cf0\u7ad9
p1255
aV\u7f57\u6e90\u7ad9
p1256
aV\u8fde\u6c5f\u7ad9
p1257
aV\u5e84\u6865\u7ad9
p1258
aV\u6d77\u53e3\u4e1c
p1259
aV\u897f\u5b81\u7ad9
p1260
aV\u6210\u90fd\u5357
p1261
aV\u91cd\u5e86\u7ad9
p1262
aV\u5f00\u5c01\u7ad9
p1263
aV\u6ee8\u6c5f\u7ad9
p1264
aV\u798f\u6e05\u7ad9
p1265
aV\u5357\u5b81\u4e1c
p1266
aV\u864e\u95e8\u7ad9
p1267
aV\u5e90\u5c71\u7ad9
p1268
aV\u5170\u5dde\u897f
p1269
aV\u4e4c\u9c81\u6728\u9f50\u5357
p1270
aV\u9ad8\u9091\u7ad9
p1271
aV\u5f00\u5c01\u5317
p1272
aV\u5858\u6cbd\u7ad9
p1273
aV\u8fdb\u8d24\u7ad9
p1274
aV\u8fdb\u8d24\u5357
p1275
aV\u6842\u6797\u897f
p1276
aV\u767d\u6d0b\u6dc0\u7ad9
p1277
aV\u677e\u6c5f\u5357
p1278
aV\u6850\u57ce\u7ad9
p1279
aV\u60e0\u5c71\u7ad9
p1280
aV\u4e0a\u6d77\u8679\u6865\u7ad9
p1281
aV\u5317\u4eac\u5357
p1282
aV\u4e0a\u6d77\u7ad9
p1283
aV\u5317\u4eac\u7ad9
p1284
aV\u5929\u6d25\u897f
p1285
aV\u5317\u4eac\u897f
p1286
aV\u5929\u6d25\u7ad9
p1287
aV\u5929\u6d25\u5357
p1288
aV\u6df1\u5733\u5317
p1289
aV\u6df1\u5733\u7ad9
p1290
aV\u5408\u80a5\u5357
p1291
aV\u5408\u80a5\u7ad9
p1292
aV\u53a6\u95e8\u5317
p1293
aV\u53a6\u95e8\u7ad9
p1294
aV\u5357\u4eac\u7ad9
p1295
aV\u5357\u4eac\u5357
p1296
aV\u6210\u90fd\u4e1c
p1297
aV\u6210\u90fd\u7ad9
p1298
aV\u897f\u5b89\u7ad9
p1299
aV\u897f\u5b89\u5317
p1300
aV\u54c8\u5c14\u6ee8\u7ad9
p1301
aV\u54c8\u5c14\u6ee8\u897f
p1302
aV\u54c8\u5c14\u6ee8\u5317
p1303
aV\u6c88\u9633\u5317
p1304
aV\u6c88\u9633\u7ad9
p1305
aV\u6c88\u9633\u5357
p1306
aV\u5927\u8fde\u7ad9
p1307
aV\u5927\u8fde\u5317
p1308
aV\u676d\u5dde\u4e1c
p1309
aV\u676d\u5dde\u7ad9
p1310
aV\u957f\u6c99\u7ad9
p1311
aV\u957f\u6c99\u5357
p1312
aV\u6b66\u660c\u7ad9
p1313
aV\u6c49\u53e3\u7ad9
p1314
aV\u6b66\u6c49\u7ad9
p1315
aV\u5170\u5dde\u7ad9
p1316
aV\u9752\u5c9b\u5317
p1317
aV\u9752\u5c9b\u7ad9
p1318
aV\u5f20\u5bb6\u754c\u7ad9
p1319
aV\u547c\u548c\u6d69\u7279\u4e1c
p1320
aV\u547c\u548c\u6d69\u7279\u7ad9
p1321
aV\u5317\u4eac\u5317
p1322
aV\u957f\u6625\u7ad9
p1323
aV\u957f\u6625\u897f
p1324
aV\u961c\u9633\u7ad9
p1325
aV\u868c\u57e0\u7ad9
p1326
aV\u868c\u57e0\u5357
p1327
aV\u82cf\u5dde\u5317
p1328
aV\u82cf\u5dde\u7ad9
p1329
aV\u5b81\u6ce2\u7ad9
p1330
aV\u6e29\u5dde\u5357
p1331
aV\u6e29\u5dde\u7ad9
p1332
aV\u77f3\u5bb6\u5e84\u5317
p1333
aV\u77f3\u5bb6\u5e84\u7ad9
p1334
aV\u5317\u4eac\u4e1c
p1335
aV\u6d4e\u5357\u4e1c
p1336
aV\u6d4e\u5357
p1337
aV\u6d4e\u5357\u897f
p1338
aV\u5357\u660c\u7ad9
p1339
aV\u5357\u660c\u897f
p1340
aV\u5357\u5b81\u7ad9
p1341
aV\u90d1\u5dde\u7ad9
p1342
aV\u90d1\u5dde\u4e1c
p1343
aV\u90d1\u5dde\u897f
p1344
aV\u4e5d\u6c5f\u7ad9
p1345
aV\u5b89\u5e86\u7ad9
p1346
aV\u5b89\u5e86\u897f
p1347
aV\u516d\u5b89\u7ad9
p1348
aV\u9ec4\u5c71\u5317
p1349
aV\u9ec4\u5c71\u7ad9
p1350
aV\u6842\u6797\u5317
p1351
aV\u6842\u6797\u7ad9
p1352
aV\u4fdd\u5b9a\u7ad9
p1353
aV\u4fdd\u5b9a\u4e1c
p1354
aV\u5e38\u5fb7\u7ad9
p1355
aV\u5927\u5e86\u897f
p1356
aV\u5927\u5e86\u4e1c
p1357
aV\u5927\u5e86\u7ad9
p1358
aV\u4f5b\u5c71\u7ad9
p1359
aV\u961c\u65b0\u7ad9
p1360
aV\u8d35\u9633\u7ad9
p1361
aV\u8d35\u9633\u5317
p1362
aV\u6d77\u53e3\u7ad9
p1363
aV\u6dee\u5357\u4e1c
p1364
aV\u6dee\u5357
p1365
aV\u5409\u6797\u7ad9
p1366
aV\u6cc9\u5dde\u7ad9
p1367
aV\u65e5\u7167\u7ad9
p1368
aV\u5546\u4e18\u5357
p1369
aV\u5546\u4e18\u7ad9
p1370
aV\u5bbf\u5dde\u4e1c
p1371
aV\u5bbf\u5dde\u7ad9
p1372
aV\u94dc\u9675\u5317
p1373
aV\u829c\u6e56\u7ad9
p1374
aV\u65e0\u9521\u4e1c
p1375
aV\u65e0\u9521\u7ad9
p1376
aV\u5f90\u5dde\u7ad9
p1377
aV\u5f90\u5dde\u4e1c
p1378
aV\u4fe1\u9633\u7ad9
p1379
aV\u4fe1\u9633\u4e1c
p1380
aV\u4e0a\u6d77\u5357
p1381
aV\u5e7f\u5dde\u7ad9
p1382
aV\u5e7f\u5dde\u5357
p1383
aV\u5e7f\u5dde\u4e1c
p1384
aV\u6df1\u5733\u576a\u5c71\u7ad9
p1385
aV\u6df1\u5733\u4e1c
p1386
aV\u4e0a\u6d77\u897f
p1387
aV\u62c9\u8428\u7ad9
p1388
aV\u798f\u5dde\u5357
p1389
aV\u798f\u5dde\u7ad9
p1390
aV\u82cf\u5dde\u56ed\u533a\u7ad9
p1391
aV\u82cf\u5dde\u65b0\u533a\u7ad9
p1392
aV\u6c60\u5dde\u7ad9
p1393
aV\u94dc\u9675\u7ad9
p1394
aV\u65e0\u9521\u65b0\u533a\u7ad9
p1395
aV\u897f\u5b89\u5357
p1396
aV\u519b\u7cae\u57ce\u5317
p1397
aV\u6768\u67f3\u9752\u7ad9
p1398
aV\u6ee8\u6d77\u7ad9
p1399
aV\u5e7f\u5dde\u5317
p1400
aV\u6df1\u5733\u897f
p1401
aV\u4e09\u4e9a\u7ad9
p1402
aV\u4e1c\u839e\u4e1c
p1403
aV\u4e1c\u839e\u7ad9
p1404
aV\u6885\u5dde\u7ad9
p1405
aV\u798f\u7530\u7ad9
p1406
aV\u4e4c\u9c81\u6728\u9f50\u7ad9
p1407
aV\u5408\u80a5\u5317\u57ce\u7ad9
p1408
aV\u91cd\u5e86\u5317
p1409
aV\u6b59\u53bf\u7ad9
p1410
aV\u6606\u660e\u7ad9
p1411
aV\u5317\u789a\u7ad9
p1412
aV\u4e3d\u6c5f\u7ad9
p1413
aV\u5927\u7406\u7ad9
p1414
aV\u7ef5\u9633\u7ad9
p1415
aV\u6606\u660e\u5357
p1416
aV\u6c38\u6cf0\u7ad9
p1417
aV\u7f57\u6e90\u7ad9
p1418
aV\u8fde\u6c5f\u7ad9
p1419
aV\u5e84\u6865\u7ad9
p1420
aV\u6d77\u53e3\u4e1c
p1421
aV\u897f\u5b81\u7ad9
p1422
aV\u6210\u90fd\u5357
p1423
aV\u91cd\u5e86\u7ad9
p1424
aV\u5f00\u5c01\u7ad9
p1425
aV\u6ee8\u6c5f\u7ad9
p1426
aV\u798f\u6e05\u7ad9
p1427
aV\u5357\u5b81\u4e1c
p1428
aV\u864e\u95e8\u7ad9
p1429
aV\u5e90\u5c71\u7ad9
p1430
aV\u5170\u5dde\u897f
p1431
aV\u4e4c\u9c81\u6728\u9f50\u5357
p1432
aV\u9ad8\u9091\u7ad9
p1433
aV\u5f00\u5c01\u5317
p1434
aV\u5858\u6cbd\u7ad9
p1435
aV\u8fdb\u8d24\u7ad9
p1436
aV\u8fdb\u8d24\u5357
p1437
aV\u6842\u6797\u897f
p1438
aV\u767d\u6d0b\u6dc0\u7ad9
p1439
aV\u677e\u6c5f\u5357
p1440
aV\u6850\u57ce\u7ad9
p1441
aV\u60e0\u5c71\u7ad9
p1442
aV\u4e0a\u6d77\u8679\u6865\u7ad9
p1443
aV\u5317\u4eac\u5357
p1444
aV\u4e0a\u6d77\u7ad9
p1445
aV\u5317\u4eac\u7ad9
p1446
aV\u5929\u6d25\u897f
p1447
aV\u5317\u4eac\u897f
p1448
aV\u5929\u6d25\u7ad9
p1449
aV\u5929\u6d25\u5357
p1450
aV\u6df1\u5733\u5317
p1451
aV\u6df1\u5733\u7ad9
p1452
aV\u5408\u80a5\u5357
p1453
aV\u5408\u80a5\u7ad9
p1454
aV\u53a6\u95e8\u5317
p1455
aV\u53a6\u95e8\u7ad9
p1456
aV\u5357\u4eac\u7ad9
p1457
aV\u5357\u4eac\u5357
p1458
aV\u6210\u90fd\u4e1c
p1459
aV\u6210\u90fd\u7ad9
p1460
aV\u897f\u5b89\u7ad9
p1461
aV\u897f\u5b89\u5317
p1462
aV\u54c8\u5c14\u6ee8\u7ad9
p1463
aV\u54c8\u5c14\u6ee8\u897f
p1464
aV\u54c8\u5c14\u6ee8\u5317
p1465
aV\u6c88\u9633\u5317
p1466
aV\u6c88\u9633\u7ad9
p1467
aV\u6c88\u9633\u5357
p1468
aV\u5927\u8fde\u7ad9
p1469
aV\u5927\u8fde\u5317
p1470
aV\u676d\u5dde\u4e1c
p1471
aV\u676d\u5dde\u7ad9
p1472
aV\u957f\u6c99\u7ad9
p1473
aV\u957f\u6c99\u5357
p1474
aV\u6b66\u660c\u7ad9
p1475
aV\u6c49\u53e3\u7ad9
p1476
aV\u6b66\u6c49\u7ad9
p1477
aV\u5170\u5dde\u7ad9
p1478
aV\u9752\u5c9b\u5317
p1479
aV\u9752\u5c9b\u7ad9
p1480
aV\u5f20\u5bb6\u754c\u7ad9
p1481
aV\u547c\u548c\u6d69\u7279\u4e1c
p1482
aV\u547c\u548c\u6d69\u7279\u7ad9
p1483
aV\u5317\u4eac\u5317
p1484
aV\u957f\u6625\u7ad9
p1485
aV\u957f\u6625\u897f
p1486
aV\u961c\u9633\u7ad9
p1487
aV\u868c\u57e0\u7ad9
p1488
aV\u868c\u57e0\u5357
p1489
aV\u82cf\u5dde\u5317
p1490
aV\u82cf\u5dde\u7ad9
p1491
aV\u5b81\u6ce2\u7ad9
p1492
aV\u6e29\u5dde\u5357
p1493
aV\u6e29\u5dde\u7ad9
p1494
aV\u77f3\u5bb6\u5e84\u5317
p1495
aV\u77f3\u5bb6\u5e84\u7ad9
p1496
aV\u5317\u4eac\u4e1c
p1497
aV\u6d4e\u5357\u4e1c
p1498
aV\u6d4e\u5357
p1499
aV\u6d4e\u5357\u897f
p1500
aV\u5357\u660c\u7ad9
p1501
aV\u5357\u660c\u897f
p1502
aV\u5357\u5b81\u7ad9
p1503
aV\u90d1\u5dde\u7ad9
p1504
aV\u90d1\u5dde\u4e1c
p1505
aV\u90d1\u5dde\u897f
p1506
aV\u4e5d\u6c5f\u7ad9
p1507
aV\u5b89\u5e86\u7ad9
p1508
aV\u5b89\u5e86\u897f
p1509
aV\u516d\u5b89\u7ad9
p1510
aV\u9ec4\u5c71\u5317
p1511
aV\u9ec4\u5c71\u7ad9
p1512
aV\u6842\u6797\u5317
p1513
aV\u6842\u6797\u7ad9
p1514
aV\u4fdd\u5b9a\u7ad9
p1515
aV\u4fdd\u5b9a\u4e1c
p1516
aV\u5e38\u5fb7\u7ad9
p1517
aV\u5927\u5e86\u897f
p1518
aV\u5927\u5e86\u4e1c
p1519
aV\u5927\u5e86\u7ad9
p1520
aV\u4f5b\u5c71\u7ad9
p1521
aV\u961c\u65b0\u7ad9
p1522
aV\u8d35\u9633\u7ad9
p1523
aV\u8d35\u9633\u5317
p1524
aV\u6d77\u53e3\u7ad9
p1525
aV\u6dee\u5357\u4e1c
p1526
aV\u6dee\u5357
p1527
aV\u5409\u6797\u7ad9
p1528
aV\u6cc9\u5dde\u7ad9
p1529
aV\u65e5\u7167\u7ad9
p1530
aV\u5546\u4e18\u5357
p1531
aV\u5546\u4e18\u7ad9
p1532
aV\u5bbf\u5dde\u4e1c
p1533
aV\u5bbf\u5dde\u7ad9
p1534
aV\u94dc\u9675\u5317
p1535
aV\u829c\u6e56\u7ad9
p1536
aV\u65e0\u9521\u4e1c
p1537
aV\u65e0\u9521\u7ad9
p1538
aV\u5f90\u5dde\u7ad9
p1539
aV\u5f90\u5dde\u4e1c
p1540
aV\u4fe1\u9633\u7ad9
p1541
aV\u4fe1\u9633\u4e1c
p1542
aV\u4e0a\u6d77\u5357
p1543
aV\u5e7f\u5dde\u7ad9
p1544
aV\u5e7f\u5dde\u5357
p1545
aV\u5e7f\u5dde\u4e1c
p1546
aV\u6df1\u5733\u576a\u5c71\u7ad9
p1547
aV\u6df1\u5733\u4e1c
p1548
aV\u4e0a\u6d77\u897f
p1549
aV\u62c9\u8428\u7ad9
p1550
aV\u798f\u5dde\u5357
p1551
aV\u798f\u5dde\u7ad9
p1552
aV\u82cf\u5dde\u56ed\u533a\u7ad9
p1553
aV\u82cf\u5dde\u65b0\u533a\u7ad9
p1554
aV\u6c60\u5dde\u7ad9
p1555
aV\u94dc\u9675\u7ad9
p1556
aV\u65e0\u9521\u65b0\u533a\u7ad9
p1557
aV\u897f\u5b89\u5357
p1558
aV\u519b\u7cae\u57ce\u5317
p1559
aV\u6768\u67f3\u9752\u7ad9
p1560
aV\u6ee8\u6d77\u7ad9
p1561
aV\u5e7f\u5dde\u5317
p1562
aV\u6df1\u5733\u897f
p1563
aV\u4e09\u4e9a\u7ad9
p1564
aV\u4e1c\u839e\u4e1c
p1565
aV\u4e1c\u839e\u7ad9
p1566
aV\u6885\u5dde\u7ad9
p1567
aV\u798f\u7530\u7ad9
p1568
aV\u4e4c\u9c81\u6728\u9f50\u7ad9
p1569
aV\u5408\u80a5\u5317\u57ce\u7ad9
p1570
aV\u91cd\u5e86\u5317
p1571
aV\u6b59\u53bf\u7ad9
p1572
aV\u6606\u660e\u7ad9
p1573
aV\u5317\u789a\u7ad9
p1574
aV\u4e3d\u6c5f\u7ad9
p1575
aV\u5927\u7406\u7ad9
p1576
aV\u7ef5\u9633\u7ad9
p1577
aV\u6606\u660e\u5357
p1578
aV\u6c38\u6cf0\u7ad9
p1579
aV\u7f57\u6e90\u7ad9
p1580
aV\u8fde\u6c5f\u7ad9
p1581
aV\u5e84\u6865\u7ad9
p1582
aV\u6d77\u53e3\u4e1c
p1583
aV\u897f\u5b81\u7ad9
p1584
aV\u6210\u90fd\u5357
p1585
aV\u91cd\u5e86\u7ad9
p1586
aV\u5f00\u5c01\u7ad9
p1587
aV\u6ee8\u6c5f\u7ad9
p1588
aV\u798f\u6e05\u7ad9
p1589
aV\u5357\u5b81\u4e1c
p1590
aV\u864e\u95e8\u7ad9
p1591
aV\u5e90\u5c71\u7ad9
p1592
aV\u5170\u5dde\u897f
p1593
aV\u4e4c\u9c81\u6728\u9f50\u5357
p1594
aV\u9ad8\u9091\u7ad9
p1595
aV\u5f00\u5c01\u5317
p1596
aV\u5858\u6cbd\u7ad9
p1597
aV\u8fdb\u8d24\u7ad9
p1598
aV\u8fdb\u8d24\u5357
p1599
aV\u6842\u6797\u897f
p1600
aV\u767d\u6d0b\u6dc0\u7ad9
p1601
aV\u677e\u6c5f\u5357
p1602
aV\u6850\u57ce\u7ad9
p1603
aV\u60e0\u5c71\u7ad9
p1604
aV\u4e0a\u6d77\u8679\u6865\u7ad9
p1605
aV\u5317\u4eac\u5357
p1606
aV\u4e0a\u6d77\u7ad9
p1607
aV\u5317\u4eac\u7ad9
p1608
aV\u5929\u6d25\u897f
p1609
aV\u5317\u4eac\u897f
p1610
aV\u5929\u6d25\u7ad9
p1611
aV\u5929\u6d25\u5357
p1612
aV\u6df1\u5733\u5317
p1613
aV\u6df1\u5733\u7ad9
p1614
aV\u5408\u80a5\u5357
p1615
aV\u5408\u80a5\u7ad9
p1616
aV\u53a6\u95e8\u5317
p1617
aV\u53a6\u95e8\u7ad9
p1618
aV\u5357\u4eac\u7ad9
p1619
aV\u5357\u4eac\u5357
p1620
aV\u6210\u90fd\u4e1c
p1621
aV\u6210\u90fd\u7ad9
p1622
aV\u897f\u5b89\u7ad9
p1623
aV\u897f\u5b89\u5317
p1624
aV\u54c8\u5c14\u6ee8\u7ad9
p1625
aV\u54c8\u5c14\u6ee8\u897f
p1626
aV\u54c8\u5c14\u6ee8\u5317
p1627
aV\u6c88\u9633\u5317
p1628
aV\u6c88\u9633\u7ad9
p1629
aV\u6c88\u9633\u5357
p1630
aV\u5927\u8fde\u7ad9
p1631
aV\u5927\u8fde\u5317
p1632
aV\u676d\u5dde\u4e1c
p1633
aV\u676d\u5dde\u7ad9
p1634
aV\u957f\u6c99\u7ad9
p1635
aV\u957f\u6c99\u5357
p1636
aV\u6b66\u660c\u7ad9
p1637
aV\u6c49\u53e3\u7ad9
p1638
aV\u6b66\u6c49\u7ad9
p1639
aV\u5170\u5dde\u7ad9
p1640
aV\u9752\u5c9b\u5317
p1641
aV\u9752\u5c9b\u7ad9
p1642
aV\u5f20\u5bb6\u754c\u7ad9
p1643
aV\u547c\u548c\u6d69\u7279\u4e1c
p1644
aV\u547c\u548c\u6d69\u7279\u7ad9
p1645
aV\u5317\u4eac\u5317
p1646
aV\u957f\u6625\u7ad9
p1647
aV\u957f\u6625\u897f
p1648
aV\u961c\u9633\u7ad9
p1649
aV\u868c\u57e0\u7ad9
p1650
aV\u868c\u57e0\u5357
p1651
aV\u82cf\u5dde\u5317
p1652
aV\u82cf\u5dde\u7ad9
p1653
aV\u5b81\u6ce2\u7ad9
p1654
aV\u6e29\u5dde\u5357
p1655
aV\u6e29\u5dde\u7ad9
p1656
aV\u77f3\u5bb6\u5e84\u5317
p1657
aV\u77f3\u5bb6\u5e84\u7ad9
p1658
aV\u5317\u4eac\u4e1c
p1659
aV\u6d4e\u5357\u4e1c
p1660
aV\u6d4e\u5357
p1661
aV\u6d4e\u5357\u897f
p1662
aV\u5357\u660c\u7ad9
p1663
aV\u5357\u660c\u897f
p1664
aV\u5357\u5b81\u7ad9
p1665
aV\u90d1\u5dde\u7ad9
p1666
aV\u90d1\u5dde\u4e1c
p1667
aV\u90d1\u5dde\u897f
p1668
aV\u4e5d\u6c5f\u7ad9
p1669
aV\u5b89\u5e86\u7ad9
p1670
aV\u5b89\u5e86\u897f
p1671
aV\u516d\u5b89\u7ad9
p1672
aV\u9ec4\u5c71\u5317
p1673
aV\u9ec4\u5c71\u7ad9
p1674
aV\u6842\u6797\u5317
p1675
aV\u6842\u6797\u7ad9
p1676
aV\u4fdd\u5b9a\u7ad9
p1677
aV\u4fdd\u5b9a\u4e1c
p1678
aV\u5e38\u5fb7\u7ad9
p1679
aV\u5927\u5e86\u897f
p1680
aV\u5927\u5e86\u4e1c
p1681
aV\u5927\u5e86\u7ad9
p1682
aV\u4f5b\u5c71\u7ad9
p1683
aV\u961c\u65b0\u7ad9
p1684
aV\u8d35\u9633\u7ad9
p1685
aV\u8d35\u9633\u5317
p1686
aV\u6d77\u53e3\u7ad9
p1687
aV\u6dee\u5357\u4e1c
p1688
aV\u6dee\u5357
p1689
aV\u5409\u6797\u7ad9
p1690
aV\u6cc9\u5dde\u7ad9
p1691
aV\u65e5\u7167\u7ad9
p1692
aV\u5546\u4e18\u5357
p1693
aV\u5546\u4e18\u7ad9
p1694
aV\u5bbf\u5dde\u4e1c
p1695
aV\u5bbf\u5dde\u7ad9
p1696
aV\u94dc\u9675\u5317
p1697
aV\u829c\u6e56\u7ad9
p1698
aV\u65e0\u9521\u4e1c
p1699
aV\u65e0\u9521\u7ad9
p1700
aV\u5f90\u5dde\u7ad9
p1701
aV\u5f90\u5dde\u4e1c
p1702
aV\u4fe1\u9633\u7ad9
p1703
aV\u4fe1\u9633\u4e1c
p1704
aV\u4e0a\u6d77\u5357
p1705
aV\u5e7f\u5dde\u7ad9
p1706
aV\u5e7f\u5dde\u5357
p1707
aV\u5e7f\u5dde\u4e1c
p1708
aV\u6df1\u5733\u576a\u5c71\u7ad9
p1709
aV\u6df1\u5733\u4e1c
p1710
aV\u4e0a\u6d77\u897f
p1711
aV\u62c9\u8428\u7ad9
p1712
aV\u798f\u5dde\u5357
p1713
aV\u798f\u5dde\u7ad9
p1714
aV\u82cf\u5dde\u56ed\u533a\u7ad9
p1715
aV\u82cf\u5dde\u65b0\u533a\u7ad9
p1716
aV\u6c60\u5dde\u7ad9
p1717
aV\u94dc\u9675\u7ad9
p1718
aV\u65e0\u9521\u65b0\u533a\u7ad9
p1719
aV\u897f\u5b89\u5357
p1720
aV\u519b\u7cae\u57ce\u5317
p1721
aV\u6768\u67f3\u9752\u7ad9
p1722
aV\u6ee8\u6d77\u7ad9
p1723
aV\u5e7f\u5dde\u5317
p1724
aV\u6df1\u5733\u897f
p1725
aV\u4e09\u4e9a\u7ad9
p1726
aV\u4e1c\u839e\u4e1c
p1727
aV\u4e1c\u839e\u7ad9
p1728
aV\u6885\u5dde\u7ad9
p1729
aV\u798f\u7530\u7ad9
p1730
aV\u4e4c\u9c81\u6728\u9f50\u7ad9
p1731
aV\u5408\u80a5\u5317\u57ce\u7ad9
p1732
aV\u91cd\u5e86\u5317
p1733
aV\u6b59\u53bf\u7ad9
p1734
aV\u6606\u660e\u7ad9
p1735
aV\u5317\u789a\u7ad9
p1736
aV\u4e3d\u6c5f\u7ad9
p1737
aV\u5927\u7406\u7ad9
p1738
aV\u7ef5\u9633\u7ad9
p1739
aV\u6606\u660e\u5357
p1740
aV\u6c38\u6cf0\u7ad9
p1741
aV\u7f57\u6e90\u7ad9
p1742
aV\u8fde\u6c5f\u7ad9
p1743
aV\u5e84\u6865\u7ad9
p1744
aV\u6d77\u53e3\u4e1c
p1745
aV\u897f\u5b81\u7ad9
p1746
aV\u6210\u90fd\u5357
p1747
aV\u91cd\u5e86\u7ad9
p1748
aV\u5f00\u5c01\u7ad9
p1749
aV\u6ee8\u6c5f\u7ad9
p1750
aV\u798f\u6e05\u7ad9
p1751
aV\u5357\u5b81\u4e1c
p1752
aV\u864e\u95e8\u7ad9
p1753
aV\u5e90\u5c71\u7ad9
p1754
aV\u5170\u5dde\u897f
p1755
aV\u4e4c\u9c81\u6728\u9f50\u5357
p1756
aV\u9ad8\u9091\u7ad9
p1757
aV\u5f00\u5c01\u5317
p1758
aV\u5858\u6cbd\u7ad9
p1759
aV\u8fdb\u8d24\u7ad9
p1760
aV\u8fdb\u8d24\u5357
p1761
aV\u6842\u6797\u897f
p1762
aV\u767d\u6d0b\u6dc0\u7ad9
p1763
aV\u677e\u6c5f\u5357
p1764
aV\u6850\u57ce\u7ad9
p1765
aV\u60e0\u5c71\u7ad9
p1766
aV\u4e0a\u6d77\u8679\u6865\u7ad9
p1767
aV\u5317\u4eac\u5357
p1768
aV\u4e0a\u6d77\u7ad9
p1769
aV\u5317\u4eac\u7ad9
p1770
aV\u5929\u6d25\u897f
p1771
aV\u5317\u4eac\u897f
p1772
aV\u5929\u6d25\u7ad9
p1773
aV\u5929\u6d25\u5357
p1774
aV\u6df1\u5733\u5317
p1775
aV\u6df1\u5733\u7ad9
p1776
aV\u5408\u80a5\u5357
p1777
aV\u5408\u80a5\u7ad9
p1778
aV\u53a6\u95e8\u5317
p1779
aV\u53a6\u95e8\u7ad9
p1780
aV\u5357\u4eac\u7ad9
p1781
aV\u5357\u4eac\u5357
p1782
aV\u6210\u90fd\u4e1c
p1783
aV\u6210\u90fd\u7ad9
p1784
aV\u897f\u5b89\u7ad9
p1785
aV\u897f\u5b89\u5317
p1786
aV\u54c8\u5c14\u6ee8\u7ad9
p1787
aV\u54c8\u5c14\u6ee8\u897f
p1788
aV\u54c8\u5c14\u6ee8\u5317
p1789
aV\u6c88\u9633\u5317
p1790
aV\u6c88\u9633\u7ad9
p1791
aV\u6c88\u9633\u5357
p1792
aV\u5927\u8fde\u7ad9
p1793
aV\u5927\u8fde\u5317
p1794
aV\u676d\u5dde\u4e1c
p1795
aV\u676d\u5dde\u7ad9
p1796
aV\u957f\u6c99\u7ad9
p1797
aV\u957f\u6c99\u5357
p1798
aV\u6b66\u660c\u7ad9
p1799
aV\u6c49\u53e3\u7ad9
p1800
aV\u6b66\u6c49\u7ad9
p1801
aV\u5170\u5dde\u7ad9
p1802
aV\u9752\u5c9b\u5317
p1803
aV\u9752\u5c9b\u7ad9
p1804
aV\u5f20\u5bb6\u754c\u7ad9
p1805
aV\u547c\u548c\u6d69\u7279\u4e1c
p1806
aV\u547c\u548c\u6d69\u7279\u7ad9
p1807
aV\u5317\u4eac\u5317
p1808
aV\u957f\u6625\u7ad9
p1809
aV\u957f\u6625\u897f
p1810
aV\u961c\u9633\u7ad9
p1811
aV\u868c\u57e0\u7ad9
p1812
aV\u868c\u57e0\u5357
p1813
aV\u82cf\u5dde\u5317
p1814
aV\u82cf\u5dde\u7ad9
p1815
aV\u5b81\u6ce2\u7ad9
p1816
aV\u6e29\u5dde\u5357
p1817
aV\u6e29\u5dde\u7ad9
p1818
aV\u77f3\u5bb6\u5e84\u5317
p1819
aV\u77f3\u5bb6\u5e84\u7ad9
p1820
aV\u5317\u4eac\u4e1c
p1821
aV\u6d4e\u5357\u4e1c
p1822
aV\u6d4e\u5357
p1823
aV\u6d4e\u5357\u897f
p1824
aV\u5357\u660c\u7ad9
p1825
aV\u5357\u660c\u897f
p1826
aV\u5357\u5b81\u7ad9
p1827
aV\u90d1\u5dde\u7ad9
p1828
aV\u90d1\u5dde\u4e1c
p1829
aV\u90d1\u5dde\u897f
p1830
aV\u4e5d\u6c5f\u7ad9
p1831
aV\u5b89\u5e86\u7ad9
p1832
aV\u5b89\u5e86\u897f
p1833
aV\u516d\u5b89\u7ad9
p1834
aV\u9ec4\u5c71\u5317
p1835
aV\u9ec4\u5c71\u7ad9
p1836
aV\u6842\u6797\u5317
p1837
aV\u6842\u6797\u7ad9
p1838
aV\u4fdd\u5b9a\u7ad9
p1839
aV\u4fdd\u5b9a\u4e1c
p1840
aV\u5e38\u5fb7\u7ad9
p1841
aV\u5927\u5e86\u897f
p1842
aV\u5927\u5e86\u4e1c
p1843
aV\u5927\u5e86\u7ad9
p1844
aV\u4f5b\u5c71\u7ad9
p1845
aV\u961c\u65b0\u7ad9
p1846
aV\u8d35\u9633\u7ad9
p1847
aV\u8d35\u9633\u5317
p1848
aV\u6d77\u53e3\u7ad9
p1849
aV\u6dee\u5357\u4e1c
p1850
aV\u6dee\u5357
p1851
aV\u5409\u6797\u7ad9
p1852
aV\u6cc9\u5dde\u7ad9
p1853
aV\u65e5\u7167\u7ad9
p1854
aV\u5546\u4e18\u5357
p1855
aV\u5546\u4e18\u7ad9
p1856
aV\u5bbf\u5dde\u4e1c
p1857
aV\u5bbf\u5dde\u7ad9
p1858
aV\u94dc\u9675\u5317
p1859
aV\u829c\u6e56\u7ad9
p1860
aV\u65e0\u9521\u4e1c
p1861
aV\u65e0\u9521\u7ad9
p1862
aV\u5f90\u5dde\u7ad9
p1863
aV\u5f90\u5dde\u4e1c
p1864
aV\u4fe1\u9633\u7ad9
p1865
aV\u4fe1\u9633\u4e1c
p1866
aV\u4e0a\u6d77\u5357
p1867
aV\u5e7f\u5dde\u7ad9
p1868
aV\u5e7f\u5dde\u5357
p1869
aV\u5e7f\u5dde\u4e1c
p1870
aV\u6df1\u5733\u576a\u5c71\u7ad9
p1871
aV\u6df1\u5733\u4e1c
p1872
aV\u4e0a\u6d77\u897f
p1873
aV\u62c9\u8428\u7ad9
p1874
aV\u798f\u5dde\u5357
p1875
aV\u798f\u5dde\u7ad9
p1876
aV\u82cf\u5dde\u56ed\u533a\u7ad9
p1877
aV\u82cf\u5dde\u65b0\u533a\u7ad9
p1878
aV\u6c60\u5dde\u7ad9
p1879
aV\u94dc\u9675\u7ad9
p1880
aV\u65e0\u9521\u65b0\u533a\u7ad9
p1881
aV\u897f\u5b89\u5357
p1882
aV\u519b\u7cae\u57ce\u5317
p1883
aV\u6768\u67f3\u9752\u7ad9
p1884
aV\u6ee8\u6d77\u7ad9
p1885
aV\u5e7f\u5dde\u5317
p1886
aV\u6df1\u5733\u897f
p1887
aV\u4e09\u4e9a\u7ad9
p1888
aV\u4e1c\u839e\u4e1c
p1889
aV\u4e1c\u839e\u7ad9
p1890
aV\u6885\u5dde\u7ad9
p1891
aV\u798f\u7530\u7ad9
p1892
aV\u4e4c\u9c81\u6728\u9f50\u7ad9
p1893
aV\u5408\u80a5\u5317\u57ce\u7ad9
p1894
aV\u91cd\u5e86\u5317
p1895
aV\u6b59\u53bf\u7ad9
p1896
aV\u6606\u660e\u7ad9
p1897
aV\u5317\u789a\u7ad9
p1898
aV\u4e3d\u6c5f\u7ad9
p1899
aV\u5927\u7406\u7ad9
p1900
aV\u7ef5\u9633\u7ad9
p1901
aV\u6606\u660e\u5357
p1902
aV\u6c38\u6cf0\u7ad9
p1903
aV\u7f57\u6e90\u7ad9
p1904
aV\u8fde\u6c5f\u7ad9
p1905
aV\u5e84\u6865\u7ad9
p1906
aV\u6d77\u53e3\u4e1c
p1907
aV\u897f\u5b81\u7ad9
p1908
aV\u6210\u90fd\u5357
p1909
aV\u91cd\u5e86\u7ad9
p1910
aV\u5f00\u5c01\u7ad9
p1911
aV\u6ee8\u6c5f\u7ad9
p1912
aV\u798f\u6e05\u7ad9
p1913
aV\u5357\u5b81\u4e1c
p1914
aV\u864e\u95e8\u7ad9
p1915
aV\u5e90\u5c71\u7ad9
p1916
aV\u5170\u5dde\u897f
p1917
aV\u4e4c\u9c81\u6728\u9f50\u5357
p1918
aV\u9ad8\u9091\u7ad9
p1919
aV\u5f00\u5c01\u5317
p1920
aV\u5858\u6cbd\u7ad9
p1921
aV\u8fdb\u8d24\u7ad9
p1922
aV\u8fdb\u8d24\u5357
p1923
aV\u6842\u6797\u897f
p1924
aV\u767d\u6d0b\u6dc0\u7ad9
p1925
aV\u677e\u6c5f\u5357
p1926
aV\u6850\u57ce\u7ad9
p1927
aV\u60e0\u5c71\u7ad9
p1928
aV\u4e0a\u6d77\u8679\u6865\u7ad9
p1929
aV\u5317\u4eac\u5357
p1930
aV\u4e0a\u6d77\u7ad9
p1931
aV\u5317\u4eac\u7ad9
p1932
aV\u5929\u6d25\u897f
p1933
aV\u5317\u4eac\u897f
p1934
aV\u5929\u6d25\u7ad9
p1935
aV\u5929\u6d25\u5357
p1936
aV\u6df1\u5733\u5317
p1937
aV\u6df1\u5733\u7ad9
p1938
aV\u5408\u80a5\u5357
p1939
aV\u5408\u80a5\u7ad9
p1940
aV\u53a6\u95e8\u5317
p1941
aV\u53a6\u95e8\u7ad9
p1942
aV\u5357\u4eac\u7ad9
p1943
aV\u5357\u4eac\u5357
p1944
aV\u6210\u90fd\u4e1c
p1945
aV\u6210\u90fd\u7ad9
p1946
aV\u897f\u5b89\u7ad9
p1947
aV\u897f\u5b89\u5317
p1948
aV\u54c8\u5c14\u6ee8\u7ad9
p1949
aV\u54c8\u5c14\u6ee8\u897f
p1950
aV\u54c8\u5c14\u6ee8\u5317
p1951
aV\u6c88\u9633\u5317
p1952
aV\u6c88\u9633\u7ad9
p1953
aV\u6c88\u9633\u5357
p1954
aV\u5927\u8fde\u7ad9
p1955
aV\u5927\u8fde\u5317
p1956
aV\u676d\u5dde\u4e1c
p1957
aV\u676d\u5dde\u7ad9
p1958
aV\u957f\u6c99\u7ad9
p1959
aV\u957f\u6c99\u5357
p1960
aV\u6b66\u660c\u7ad9
p1961
aV\u6c49\u53e3\u7ad9
p1962
aV\u6b66\u6c49\u7ad9
p1963
aV\u5170\u5dde\u7ad9
p1964
aV\u9752\u5c9b\u5317
p1965
aV\u9752\u5c9b\u7ad9
p1966
aV\u5f20\u5bb6\u754c\u7ad9
p1967
aV\u547c\u548c\u6d69\u7279\u4e1c
p1968
aV\u547c\u548c\u6d69\u7279\u7ad9
p1969
aV\u5317\u4eac\u5317
p1970
aV\u957f\u6625\u7ad9
p1971
aV\u957f\u6625\u897f
p1972
aV\u961c\u9633\u7ad9
p1973
aV\u868c\u57e0\u7ad9
p1974
aV\u868c\u57e0\u5357
p1975
aV\u82cf\u5dde\u5317
p1976
aV\u82cf\u5dde\u7ad9
p1977
aV\u5b81\u6ce2\u7ad9
p1978
aV\u6e29\u5dde\u5357
p1979
aV\u6e29\u5dde\u7ad9
p1980
aV\u77f3\u5bb6\u5e84\u5317
p1981
aV\u77f3\u5bb6\u5e84\u7ad9
p1982
aV\u5317\u4eac\u4e1c
p1983
aV\u6d4e\u5357\u4e1c
p1984
aV\u6d4e\u5357
p1985
aV\u6d4e\u5357\u897f
p1986
aV\u5357\u660c\u7ad9
p1987
aV\u5357\u660c\u897f
p1988
aV\u5357\u5b81\u7ad9
p1989
aV\u90d1\u5dde\u7ad9
p1990
aV\u90d1\u5dde\u4e1c
p1991
aV\u90d1\u5dde\u897f
p1992
aV\u4e5d\u6c5f\u7ad9
p1993
aV\u5b89\u5e86\u7ad9
p1994
aV\u5b89\u5e86\u897f
p1995
aV\u516d\u5b89\u7ad9
p1996
aV\u9ec4\u5c71\u5317
p1997
aV\u9ec4\u5c71\u7ad9
p1998
aV\u6842\u6797\u5317
p1999
aV\u6842\u6797\u7ad9
p2000
aV\u4fdd\u5b9a\u7ad9
p2001
aV\u4fdd\u5b9a\u4e1c
p2002
aV\u5e38\u5fb7\u7ad9
p2003
aV\u5927\u5e86\u897f
p2004
aV\u5927\u5e86\u4e1c
p2005
aV\u5927\u5e86\u7ad9
p2006
aV\u4f5b\u5c71\u7ad9
p2007
aV\u961c\u65b0\u7ad9
p2008
aV\u8d35\u9633\u7ad9
p2009
aV\u8d35\u9633\u5317
p2010
aV\u6d77\u53e3\u7ad9
p2011
aV\u6dee\u5357\u4e1c
p2012
aV\u6dee\u5357
p2013
aV\u5409\u6797\u7ad9
p2014
aV\u6cc9\u5dde\u7ad9
p2015
aV\u65e5\u7167\u7ad9
p2016
aV\u5546\u4e18\u5357
p2017
aV\u5546\u4e18\u7ad9
p2018
aV\u5bbf\u5dde\u4e1c
p2019
aV\u5bbf\u5dde\u7ad9
p2020
aV\u94dc\u9675\u5317
p2021
aV\u829c\u6e56\u7ad9
p2022
aV\u65e0\u9521\u4e1c
p2023
aV\u65e0\u9521\u7ad9
p2024
aV\u5f90\u5dde\u7ad9
p2025
aV\u5f90\u5dde\u4e1c
p2026
aV\u4fe1\u9633\u7ad9
p2027
aV\u4fe1\u9633\u4e1c
p2028
aV\u4e0a\u6d77\u5357
p2029
aV\u5e7f\u5dde\u7ad9
p2030
aV\u5e7f\u5dde\u5357
p2031
aV\u5e7f\u5dde\u4e1c
p2032
aV\u6df1\u5733\u576a\u5c71\u7ad9
p2033
aV\u6df1\u5733\u4e1c
p2034
aV\u4e0a\u6d77\u897f
p2035
aV\u62c9\u8428\u7ad9
p2036
aV\u798f\u5dde\u5357
p2037
aV\u798f\u5dde\u7ad9
p2038
aV\u82cf\u5dde\u56ed\u533a\u7ad9
p2039
aV\u82cf\u5dde\u65b0\u533a\u7ad9
p2040
aV\u6c60\u5dde\u7ad9
p2041
aV\u94dc\u9675\u7ad9
p2042
aV\u65e0\u9521\u65b0\u533a\u7ad9
p2043
aV\u897f\u5b89\u5357
p2044
aV\u519b\u7cae\u57ce\u5317
p2045
aV\u6768\u67f3\u9752\u7ad9
p2046
aV\u6ee8\u6d77\u7ad9
p2047
aV\u5e7f\u5dde\u5317
p2048
aV\u6df1\u5733\u897f
p2049
aV\u4e09\u4e9a\u7ad9
p2050
aV\u4e1c\u839e\u4e1c
p2051
aV\u4e1c\u839e\u7ad9
p2052
aV\u6885\u5dde\u7ad9
p2053
aV\u798f\u7530\u7ad9
p2054
aV\u4e4c\u9c81\u6728\u9f50\u7ad9
p2055
aV\u5408\u80a5\u5317\u57ce\u7ad9
p2056
aV\u91cd\u5e86\u5317
p2057
aV\u6b59\u53bf\u7ad9
p2058
aV\u6606\u660e\u7ad9
p2059
aV\u5317\u789a\u7ad9
p2060
aV\u4e3d\u6c5f\u7ad9
p2061
aV\u5927\u7406\u7ad9
p2062
aV\u7ef5\u9633\u7ad9
p2063
aV\u6606\u660e\u5357
p2064
aV\u6c38\u6cf0\u7ad9
p2065
aV\u7f57\u6e90\u7ad9
p2066
aV\u8fde\u6c5f\u7ad9
p2067
aV\u5e84\u6865\u7ad9
p2068
aV\u6d77\u53e3\u4e1c
p2069
aV\u897f\u5b81\u7ad9
p2070
aV\u6210\u90fd\u5357
p2071
aV\u91cd\u5e86\u7ad9
p2072
aV\u5f00\u5c01\u7ad9
p2073
aV\u6ee8\u6c5f\u7ad9
p2074
aV\u798f\u6e05\u7ad9
p2075
aV\u5357\u5b81\u4e1c
p2076
aV\u864e\u95e8\u7ad9
p2077
aV\u5e90\u5c71\u7ad9
p2078
aV\u5170\u5dde\u897f
p2079
aV\u4e4c\u9c81\u6728\u9f50\u5357
p2080
aV\u9ad8\u9091\u7ad9
p2081
aV\u5f00\u5c01\u5317
p2082
aV\u5858\u6cbd\u7ad9
p2083
aV\u8fdb\u8d24\u7ad9
p2084
aV\u8fdb\u8d24\u5357
p2085
aV\u6842\u6797\u897f
p2086
aV\u767d\u6d0b\u6dc0\u7ad9
p2087
aV\u677e\u6c5f\u5357
p2088
aV\u6850\u57ce\u7ad9
p2089
aV\u60e0\u5c71\u7ad9
p2090
a.